
/home/vybhav/Videos/FPGA_firmware/ZillaRV-Gen0-Verif/FPGA/SW/programs/and_op/and_op.elf:     file format elf32-littleriscv


Disassembly of section .vectors:

00008000 <_isr_vector>:
    8000:	6800006f          	j	8680 <Exception_handler_irq>
    8004:	66c0006f          	j	8670 <No_irq_handler>
    8008:	6680006f          	j	8670 <No_irq_handler>
    800c:	6640006f          	j	8670 <No_irq_handler>
    8010:	6800006f          	j	8690 <machine_software_irq>
    8014:	65c0006f          	j	8670 <No_irq_handler>
    8018:	6580006f          	j	8670 <No_irq_handler>
    801c:	6540006f          	j	8670 <No_irq_handler>
    8020:	64c0006f          	j	866c <Default_Handler>
    8024:	64c0006f          	j	8670 <No_irq_handler>
    8028:	6480006f          	j	8670 <No_irq_handler>
    802c:	6440006f          	j	8670 <No_irq_handler>
    8030:	63c0006f          	j	866c <Default_Handler>
    8034:	63c0006f          	j	8670 <No_irq_handler>
    8038:	6380006f          	j	8670 <No_irq_handler>
    803c:	6340006f          	j	8670 <No_irq_handler>
    8040:	62c0006f          	j	866c <Default_Handler>
    8044:	6280006f          	j	866c <Default_Handler>
    8048:	6240006f          	j	866c <Default_Handler>
    804c:	6200006f          	j	866c <Default_Handler>
    8050:	61c0006f          	j	866c <Default_Handler>
    8054:	6180006f          	j	866c <Default_Handler>
    8058:	6140006f          	j	866c <Default_Handler>
    805c:	6100006f          	j	866c <Default_Handler>
    8060:	60c0006f          	j	866c <Default_Handler>
    8064:	6080006f          	j	866c <Default_Handler>
    8068:	6040006f          	j	866c <Default_Handler>
    806c:	6000006f          	j	866c <Default_Handler>
    8070:	5fc0006f          	j	866c <Default_Handler>
    8074:	5f80006f          	j	866c <Default_Handler>
    8078:	5f40006f          	j	866c <Default_Handler>
    807c:	5f00006f          	j	866c <Default_Handler>
    8080:	5ec0006f          	j	866c <Default_Handler>
    8084:	5e80006f          	j	866c <Default_Handler>
    8088:	5e40006f          	j	866c <Default_Handler>
    808c:	5e00006f          	j	866c <Default_Handler>
    8090:	5dc0006f          	j	866c <Default_Handler>
    8094:	5d80006f          	j	866c <Default_Handler>
    8098:	5d40006f          	j	866c <Default_Handler>
    809c:	5d00006f          	j	866c <Default_Handler>
    80a0:	5cc0006f          	j	866c <Default_Handler>
    80a4:	5c80006f          	j	866c <Default_Handler>
    80a8:	5c40006f          	j	866c <Default_Handler>
    80ac:	5c00006f          	j	866c <Default_Handler>
    80b0:	5bc0006f          	j	866c <Default_Handler>
    80b4:	5b80006f          	j	866c <Default_Handler>
    80b8:	5b40006f          	j	866c <Default_Handler>
    80bc:	5b00006f          	j	866c <Default_Handler>
    80c0:	5ac0006f          	j	866c <Default_Handler>
    80c4:	5a80006f          	j	866c <Default_Handler>
    80c8:	5a40006f          	j	866c <Default_Handler>
    80cc:	5a00006f          	j	866c <Default_Handler>
    80d0:	59c0006f          	j	866c <Default_Handler>
    80d4:	5980006f          	j	866c <Default_Handler>
    80d8:	5940006f          	j	866c <Default_Handler>
    80dc:	5900006f          	j	866c <Default_Handler>
    80e0:	58c0006f          	j	866c <Default_Handler>
    80e4:	5880006f          	j	866c <Default_Handler>
    80e8:	5840006f          	j	866c <Default_Handler>
    80ec:	5800006f          	j	866c <Default_Handler>
    80f0:	57c0006f          	j	866c <Default_Handler>
    80f4:	5780006f          	j	866c <Default_Handler>
    80f8:	5740006f          	j	866c <Default_Handler>
    80fc:	5700006f          	j	866c <Default_Handler>

Disassembly of section .init:

00008100 <_reset>:
    8100:	00000093          	li	ra,0
    8104:	00000113          	li	sp,0
    8108:	00000193          	li	gp,0
    810c:	00000213          	li	tp,0
    8110:	00000293          	li	t0,0
    8114:	00000313          	li	t1,0
    8118:	00000393          	li	t2,0
    811c:	00000413          	li	s0,0
    8120:	00000493          	li	s1,0
    8124:	00000513          	li	a0,0
    8128:	00000593          	li	a1,0
    812c:	00000613          	li	a2,0
    8130:	00000693          	li	a3,0
    8134:	00000713          	li	a4,0
    8138:	00000793          	li	a5,0
    813c:	00000813          	li	a6,0
    8140:	00000893          	li	a7,0
    8144:	00000913          	li	s2,0
    8148:	00000993          	li	s3,0
    814c:	00000a13          	li	s4,0
    8150:	00000a93          	li	s5,0
    8154:	00000b13          	li	s6,0
    8158:	00000b93          	li	s7,0
    815c:	00000c13          	li	s8,0
    8160:	00000c93          	li	s9,0
    8164:	00000d13          	li	s10,0
    8168:	00000d93          	li	s11,0
    816c:	00000e13          	li	t3,0
    8170:	00000e93          	li	t4,0
    8174:	00000f13          	li	t5,0
    8178:	00000f93          	li	t6,0
    817c:	00021197          	auipc	gp,0x21
    8180:	b0418193          	addi	gp,gp,-1276 # 28c80 <_global_pointer>
    8184:	00040117          	auipc	sp,0x40
    8188:	e7c10113          	addi	sp,sp,-388 # 48000 <__heap_end>
    818c:	00028737          	lui	a4,0x28
    8190:	48070713          	addi	a4,a4,1152 # 28480 <impure_data>
    8194:	000297b7          	lui	a5,0x29
    8198:	8a878793          	addi	a5,a5,-1880 # 288a8 <_end_data>
    819c:	04f77463          	bgeu	a4,a5,81e4 <_reset+0xe4>
    81a0:	00028737          	lui	a4,0x28
    81a4:	48070793          	addi	a5,a4,1152 # 28480 <impure_data>
    81a8:	000296b7          	lui	a3,0x29
    81ac:	8a768693          	addi	a3,a3,-1881 # 288a7 <impure_data+0x427>
    81b0:	40f686b3          	sub	a3,a3,a5
    81b4:	ffc6f693          	andi	a3,a3,-4
    81b8:	00468693          	addi	a3,a3,4
    81bc:	000287b7          	lui	a5,0x28
    81c0:	48078613          	addi	a2,a5,1152 # 28480 <impure_data>
    81c4:	00c686b3          	add	a3,a3,a2
    81c8:	48070713          	addi	a4,a4,1152
    81cc:	48078793          	addi	a5,a5,1152
    81d0:	0007a603          	lw	a2,0(a5)
    81d4:	00c72023          	sw	a2,0(a4)
    81d8:	00470713          	addi	a4,a4,4
    81dc:	00478793          	addi	a5,a5,4
    81e0:	fed798e3          	bne	a5,a3,81d0 <_reset+0xd0>
    81e4:	00029737          	lui	a4,0x29
    81e8:	8c070713          	addi	a4,a4,-1856 # 288c0 <mt>
    81ec:	000297b7          	lui	a5,0x29
    81f0:	28078793          	addi	a5,a5,640 # 29280 <__heap_start>
    81f4:	02f77a63          	bgeu	a4,a5,8228 <_reset+0x128>
    81f8:	000297b7          	lui	a5,0x29
    81fc:	8c078693          	addi	a3,a5,-1856 # 288c0 <mt>
    8200:	00029737          	lui	a4,0x29
    8204:	27f70713          	addi	a4,a4,639 # 2927f <//_global_pointer+0x1d7>
    8208:	40d70733          	sub	a4,a4,a3
    820c:	ffc77713          	andi	a4,a4,-4
    8210:	00470713          	addi	a4,a4,4
    8214:	00d70733          	add	a4,a4,a3
    8218:	8c078793          	addi	a5,a5,-1856
    821c:	0007a023          	sw	zero,0(a5)
    8220:	00478793          	addi	a5,a5,4
    8224:	fee79ce3          	bne	a5,a4,821c <_reset+0x11c>
    8228:	008000ef          	jal	ra,8230 <main>
    822c:	2640606f          	j	e490 <exit>

Disassembly of section .text:

00008230 <main>:
    8230:	f8010113          	addi	sp,sp,-128
    8234:	06112e23          	sw	ra,124(sp)
    8238:	06812c23          	sw	s0,120(sp)
    823c:	08010413          	addi	s0,sp,128
    8240:	00100793          	li	a5,1
    8244:	f8f42a23          	sw	a5,-108(s0)
    8248:	000287b7          	lui	a5,0x28
    824c:	02878793          	addi	a5,a5,40 # 28028 <__data_address+0x28>
    8250:	0007a603          	lw	a2,0(a5)
    8254:	0047a683          	lw	a3,4(a5)
    8258:	0087a703          	lw	a4,8(a5)
    825c:	00c7a783          	lw	a5,12(a5)
    8260:	f8c42223          	sw	a2,-124(s0)
    8264:	f8d42423          	sw	a3,-120(s0)
    8268:	f8e42623          	sw	a4,-116(s0)
    826c:	f8f42823          	sw	a5,-112(s0)
    8270:	00400793          	li	a5,4
    8274:	fef42623          	sw	a5,-20(s0)
    8278:	f8440793          	addi	a5,s0,-124
    827c:	fec42583          	lw	a1,-20(s0)
    8280:	00078513          	mv	a0,a5
    8284:	020030ef          	jal	ra,b2a4 <init_by_array>
    8288:	00100793          	li	a5,1
    828c:	f8f42a23          	sw	a5,-108(s0)
    8290:	05c0006f          	j	82ec <main+0xbc>
    8294:	2d4030ef          	jal	ra,b568 <genrand_int32>
    8298:	00050793          	mv	a5,a0
    829c:	f8f40ea3          	sb	a5,-99(s0)
    82a0:	2c8030ef          	jal	ra,b568 <genrand_int32>
    82a4:	00050793          	mv	a5,a0
    82a8:	f8f40e23          	sb	a5,-100(s0)
    82ac:	f9d44783          	lbu	a5,-99(s0)
    82b0:	00078713          	mv	a4,a5
    82b4:	f9c44783          	lbu	a5,-100(s0)
    82b8:	00f777b3          	and	a5,a4,a5
    82bc:	f8f40da3          	sb	a5,-101(s0)
    82c0:	f9d44783          	lbu	a5,-99(s0)
    82c4:	f9c44703          	lbu	a4,-100(s0)
    82c8:	f9b44683          	lbu	a3,-101(s0)
    82cc:	00070613          	mv	a2,a4
    82d0:	00078593          	mv	a1,a5
    82d4:	000287b7          	lui	a5,0x28
    82d8:	00078513          	mv	a0,a5
    82dc:	2f5020ef          	jal	ra,add0 <printf_>
    82e0:	f9442783          	lw	a5,-108(s0)
    82e4:	00178793          	addi	a5,a5,1 # 28001 <__data_address+0x1>
    82e8:	f8f42a23          	sw	a5,-108(s0)
    82ec:	f9442703          	lw	a4,-108(s0)
    82f0:	00500793          	li	a5,5
    82f4:	fae7d0e3          	bge	a5,a4,8294 <main+0x64>
    82f8:	00100793          	li	a5,1
    82fc:	f8f42a23          	sw	a5,-108(s0)
    8300:	05c0006f          	j	835c <main+0x12c>
    8304:	264030ef          	jal	ra,b568 <genrand_int32>
    8308:	00050793          	mv	a5,a0
    830c:	faf41123          	sh	a5,-94(s0)
    8310:	258030ef          	jal	ra,b568 <genrand_int32>
    8314:	00050793          	mv	a5,a0
    8318:	faf41023          	sh	a5,-96(s0)
    831c:	fa245783          	lhu	a5,-94(s0)
    8320:	00078713          	mv	a4,a5
    8324:	fa045783          	lhu	a5,-96(s0)
    8328:	00f777b3          	and	a5,a4,a5
    832c:	f8f41f23          	sh	a5,-98(s0)
    8330:	fa245783          	lhu	a5,-94(s0)
    8334:	fa045703          	lhu	a4,-96(s0)
    8338:	f9e45683          	lhu	a3,-98(s0)
    833c:	00070613          	mv	a2,a4
    8340:	00078593          	mv	a1,a5
    8344:	000287b7          	lui	a5,0x28
    8348:	00078513          	mv	a0,a5
    834c:	285020ef          	jal	ra,add0 <printf_>
    8350:	f9442783          	lw	a5,-108(s0)
    8354:	00178793          	addi	a5,a5,1 # 28001 <__data_address+0x1>
    8358:	f8f42a23          	sw	a5,-108(s0)
    835c:	f9442703          	lw	a4,-108(s0)
    8360:	00500793          	li	a5,5
    8364:	fae7d0e3          	bge	a5,a4,8304 <main+0xd4>
    8368:	00100793          	li	a5,1
    836c:	f8f42a23          	sw	a5,-108(s0)
    8370:	0500006f          	j	83c0 <main+0x190>
    8374:	1f4030ef          	jal	ra,b568 <genrand_int32>
    8378:	00050793          	mv	a5,a0
    837c:	faf42623          	sw	a5,-84(s0)
    8380:	1e8030ef          	jal	ra,b568 <genrand_int32>
    8384:	00050793          	mv	a5,a0
    8388:	faf42423          	sw	a5,-88(s0)
    838c:	fac42703          	lw	a4,-84(s0)
    8390:	fa842783          	lw	a5,-88(s0)
    8394:	00f777b3          	and	a5,a4,a5
    8398:	faf42223          	sw	a5,-92(s0)
    839c:	fa442683          	lw	a3,-92(s0)
    83a0:	fa842603          	lw	a2,-88(s0)
    83a4:	fac42583          	lw	a1,-84(s0)
    83a8:	000287b7          	lui	a5,0x28
    83ac:	00078513          	mv	a0,a5
    83b0:	221020ef          	jal	ra,add0 <printf_>
    83b4:	f9442783          	lw	a5,-108(s0)
    83b8:	00178793          	addi	a5,a5,1 # 28001 <__data_address+0x1>
    83bc:	f8f42a23          	sw	a5,-108(s0)
    83c0:	f9442703          	lw	a4,-108(s0)
    83c4:	00500793          	li	a5,5
    83c8:	fae7d6e3          	bge	a5,a4,8374 <main+0x144>
    83cc:	00100793          	li	a5,1
    83d0:	f8f42a23          	sw	a5,-108(s0)
    83d4:	0600006f          	j	8434 <main+0x204>
    83d8:	190030ef          	jal	ra,b568 <genrand_int32>
    83dc:	00050793          	mv	a5,a0
    83e0:	faf40ba3          	sb	a5,-73(s0)
    83e4:	184030ef          	jal	ra,b568 <genrand_int32>
    83e8:	00050793          	mv	a5,a0
    83ec:	faf41a23          	sh	a5,-76(s0)
    83f0:	fb744783          	lbu	a5,-73(s0)
    83f4:	01079793          	slli	a5,a5,0x10
    83f8:	0107d793          	srli	a5,a5,0x10
    83fc:	fb445703          	lhu	a4,-76(s0)
    8400:	00e7f7b3          	and	a5,a5,a4
    8404:	faf41923          	sh	a5,-78(s0)
    8408:	fb744783          	lbu	a5,-73(s0)
    840c:	fb445703          	lhu	a4,-76(s0)
    8410:	fb245683          	lhu	a3,-78(s0)
    8414:	00070613          	mv	a2,a4
    8418:	00078593          	mv	a1,a5
    841c:	000287b7          	lui	a5,0x28
    8420:	00078513          	mv	a0,a5
    8424:	1ad020ef          	jal	ra,add0 <printf_>
    8428:	f9442783          	lw	a5,-108(s0)
    842c:	00178793          	addi	a5,a5,1 # 28001 <__data_address+0x1>
    8430:	f8f42a23          	sw	a5,-108(s0)
    8434:	f9442703          	lw	a4,-108(s0)
    8438:	00500793          	li	a5,5
    843c:	f8e7dee3          	bge	a5,a4,83d8 <main+0x1a8>
    8440:	00100793          	li	a5,1
    8444:	f8f42a23          	sw	a5,-108(s0)
    8448:	0540006f          	j	849c <main+0x26c>
    844c:	11c030ef          	jal	ra,b568 <genrand_int32>
    8450:	00050793          	mv	a5,a0
    8454:	fcf400a3          	sb	a5,-63(s0)
    8458:	110030ef          	jal	ra,b568 <genrand_int32>
    845c:	00050793          	mv	a5,a0
    8460:	faf42e23          	sw	a5,-68(s0)
    8464:	fc144783          	lbu	a5,-63(s0)
    8468:	fbc42703          	lw	a4,-68(s0)
    846c:	00f777b3          	and	a5,a4,a5
    8470:	faf42c23          	sw	a5,-72(s0)
    8474:	fc144783          	lbu	a5,-63(s0)
    8478:	fb842683          	lw	a3,-72(s0)
    847c:	fbc42603          	lw	a2,-68(s0)
    8480:	00078593          	mv	a1,a5
    8484:	000287b7          	lui	a5,0x28
    8488:	00078513          	mv	a0,a5
    848c:	145020ef          	jal	ra,add0 <printf_>
    8490:	f9442783          	lw	a5,-108(s0)
    8494:	00178793          	addi	a5,a5,1 # 28001 <__data_address+0x1>
    8498:	f8f42a23          	sw	a5,-108(s0)
    849c:	f9442703          	lw	a4,-108(s0)
    84a0:	00500793          	li	a5,5
    84a4:	fae7d4e3          	bge	a5,a4,844c <main+0x21c>
    84a8:	00100793          	li	a5,1
    84ac:	f8f42a23          	sw	a5,-108(s0)
    84b0:	0600006f          	j	8510 <main+0x2e0>
    84b4:	0b4030ef          	jal	ra,b568 <genrand_int32>
    84b8:	00050793          	mv	a5,a0
    84bc:	fcf41323          	sh	a5,-58(s0)
    84c0:	0a8030ef          	jal	ra,b568 <genrand_int32>
    84c4:	00050793          	mv	a5,a0
    84c8:	fcf402a3          	sb	a5,-59(s0)
    84cc:	fc544783          	lbu	a5,-59(s0)
    84d0:	01079793          	slli	a5,a5,0x10
    84d4:	0107d793          	srli	a5,a5,0x10
    84d8:	fc645703          	lhu	a4,-58(s0)
    84dc:	00e7f7b3          	and	a5,a5,a4
    84e0:	fcf41123          	sh	a5,-62(s0)
    84e4:	fc645783          	lhu	a5,-58(s0)
    84e8:	fc544703          	lbu	a4,-59(s0)
    84ec:	fc245683          	lhu	a3,-62(s0)
    84f0:	00070613          	mv	a2,a4
    84f4:	00078593          	mv	a1,a5
    84f8:	000287b7          	lui	a5,0x28
    84fc:	00078513          	mv	a0,a5
    8500:	0d1020ef          	jal	ra,add0 <printf_>
    8504:	f9442783          	lw	a5,-108(s0)
    8508:	00178793          	addi	a5,a5,1 # 28001 <__data_address+0x1>
    850c:	f8f42a23          	sw	a5,-108(s0)
    8510:	f9442703          	lw	a4,-108(s0)
    8514:	00500793          	li	a5,5
    8518:	f8e7dee3          	bge	a5,a4,84b4 <main+0x284>
    851c:	00100793          	li	a5,1
    8520:	f8f42a23          	sw	a5,-108(s0)
    8524:	0540006f          	j	8578 <main+0x348>
    8528:	040030ef          	jal	ra,b568 <genrand_int32>
    852c:	00050793          	mv	a5,a0
    8530:	fcf41923          	sh	a5,-46(s0)
    8534:	034030ef          	jal	ra,b568 <genrand_int32>
    8538:	00050793          	mv	a5,a0
    853c:	fcf42623          	sw	a5,-52(s0)
    8540:	fd245783          	lhu	a5,-46(s0)
    8544:	fcc42703          	lw	a4,-52(s0)
    8548:	00f777b3          	and	a5,a4,a5
    854c:	fcf42423          	sw	a5,-56(s0)
    8550:	fd245783          	lhu	a5,-46(s0)
    8554:	fc842683          	lw	a3,-56(s0)
    8558:	fcc42603          	lw	a2,-52(s0)
    855c:	00078593          	mv	a1,a5
    8560:	000287b7          	lui	a5,0x28
    8564:	00078513          	mv	a0,a5
    8568:	069020ef          	jal	ra,add0 <printf_>
    856c:	f9442783          	lw	a5,-108(s0)
    8570:	00178793          	addi	a5,a5,1 # 28001 <__data_address+0x1>
    8574:	f8f42a23          	sw	a5,-108(s0)
    8578:	f9442703          	lw	a4,-108(s0)
    857c:	00500793          	li	a5,5
    8580:	fae7d4e3          	bge	a5,a4,8528 <main+0x2f8>
    8584:	00100793          	li	a5,1
    8588:	f8f42a23          	sw	a5,-108(s0)
    858c:	0540006f          	j	85e0 <main+0x3b0>
    8590:	7d9020ef          	jal	ra,b568 <genrand_int32>
    8594:	00050793          	mv	a5,a0
    8598:	fcf42e23          	sw	a5,-36(s0)
    859c:	7cd020ef          	jal	ra,b568 <genrand_int32>
    85a0:	00050793          	mv	a5,a0
    85a4:	fcf40da3          	sb	a5,-37(s0)
    85a8:	fdb44783          	lbu	a5,-37(s0)
    85ac:	fdc42703          	lw	a4,-36(s0)
    85b0:	00f777b3          	and	a5,a4,a5
    85b4:	fcf42a23          	sw	a5,-44(s0)
    85b8:	fdb44783          	lbu	a5,-37(s0)
    85bc:	fd442683          	lw	a3,-44(s0)
    85c0:	00078613          	mv	a2,a5
    85c4:	fdc42583          	lw	a1,-36(s0)
    85c8:	000287b7          	lui	a5,0x28
    85cc:	00078513          	mv	a0,a5
    85d0:	001020ef          	jal	ra,add0 <printf_>
    85d4:	f9442783          	lw	a5,-108(s0)
    85d8:	00178793          	addi	a5,a5,1 # 28001 <__data_address+0x1>
    85dc:	f8f42a23          	sw	a5,-108(s0)
    85e0:	f9442703          	lw	a4,-108(s0)
    85e4:	00500793          	li	a5,5
    85e8:	fae7d4e3          	bge	a5,a4,8590 <main+0x360>
    85ec:	00100793          	li	a5,1
    85f0:	f8f42a23          	sw	a5,-108(s0)
    85f4:	0540006f          	j	8648 <main+0x418>
    85f8:	771020ef          	jal	ra,b568 <genrand_int32>
    85fc:	00050793          	mv	a5,a0
    8600:	fef42423          	sw	a5,-24(s0)
    8604:	765020ef          	jal	ra,b568 <genrand_int32>
    8608:	00050793          	mv	a5,a0
    860c:	fef41323          	sh	a5,-26(s0)
    8610:	fe645783          	lhu	a5,-26(s0)
    8614:	fe842703          	lw	a4,-24(s0)
    8618:	00f777b3          	and	a5,a4,a5
    861c:	fef42023          	sw	a5,-32(s0)
    8620:	fe645783          	lhu	a5,-26(s0)
    8624:	fe042683          	lw	a3,-32(s0)
    8628:	00078613          	mv	a2,a5
    862c:	fe842583          	lw	a1,-24(s0)
    8630:	000287b7          	lui	a5,0x28
    8634:	00078513          	mv	a0,a5
    8638:	798020ef          	jal	ra,add0 <printf_>
    863c:	f9442783          	lw	a5,-108(s0)
    8640:	00178793          	addi	a5,a5,1 # 28001 <__data_address+0x1>
    8644:	f8f42a23          	sw	a5,-108(s0)
    8648:	f9442703          	lw	a4,-108(s0)
    864c:	00500793          	li	a5,5
    8650:	fae7d4e3          	bge	a5,a4,85f8 <main+0x3c8>
    8654:	00000793          	li	a5,0
    8658:	00078513          	mv	a0,a5
    865c:	07c12083          	lw	ra,124(sp)
    8660:	07812403          	lw	s0,120(sp)
    8664:	08010113          	addi	sp,sp,128
    8668:	00008067          	ret

0000866c <Default_Handler>:
    866c:	0000006f          	j	866c <Default_Handler>

00008670 <No_irq_handler>:
    8670:	ff010113          	addi	sp,sp,-16
    8674:	00812623          	sw	s0,12(sp)
    8678:	01010413          	addi	s0,sp,16
    867c:	0000006f          	j	867c <No_irq_handler+0xc>

00008680 <Exception_handler_irq>:
    8680:	ff010113          	addi	sp,sp,-16
    8684:	00812623          	sw	s0,12(sp)
    8688:	01010413          	addi	s0,sp,16
    868c:	0000006f          	j	868c <Exception_handler_irq+0xc>

00008690 <machine_software_irq>:
    8690:	ff010113          	addi	sp,sp,-16
    8694:	00812623          	sw	s0,12(sp)
    8698:	01010413          	addi	s0,sp,16
    869c:	0000006f          	j	869c <machine_software_irq+0xc>

000086a0 <_out_buffer>:
    86a0:	fe010113          	addi	sp,sp,-32
    86a4:	00812e23          	sw	s0,28(sp)
    86a8:	02010413          	addi	s0,sp,32
    86ac:	00050793          	mv	a5,a0
    86b0:	feb42423          	sw	a1,-24(s0)
    86b4:	fec42223          	sw	a2,-28(s0)
    86b8:	fed42023          	sw	a3,-32(s0)
    86bc:	fef407a3          	sb	a5,-17(s0)
    86c0:	fe442703          	lw	a4,-28(s0)
    86c4:	fe042783          	lw	a5,-32(s0)
    86c8:	00f77c63          	bgeu	a4,a5,86e0 <_out_buffer+0x40>
    86cc:	fe842703          	lw	a4,-24(s0)
    86d0:	fe442783          	lw	a5,-28(s0)
    86d4:	00f707b3          	add	a5,a4,a5
    86d8:	fef44703          	lbu	a4,-17(s0)
    86dc:	00e78023          	sb	a4,0(a5)
    86e0:	00000013          	nop
    86e4:	01c12403          	lw	s0,28(sp)
    86e8:	02010113          	addi	sp,sp,32
    86ec:	00008067          	ret

000086f0 <_out_null>:
    86f0:	fe010113          	addi	sp,sp,-32
    86f4:	00812e23          	sw	s0,28(sp)
    86f8:	02010413          	addi	s0,sp,32
    86fc:	00050793          	mv	a5,a0
    8700:	feb42423          	sw	a1,-24(s0)
    8704:	fec42223          	sw	a2,-28(s0)
    8708:	fed42023          	sw	a3,-32(s0)
    870c:	fef407a3          	sb	a5,-17(s0)
    8710:	00000013          	nop
    8714:	01c12403          	lw	s0,28(sp)
    8718:	02010113          	addi	sp,sp,32
    871c:	00008067          	ret

00008720 <_out_char>:
    8720:	fe010113          	addi	sp,sp,-32
    8724:	00112e23          	sw	ra,28(sp)
    8728:	00812c23          	sw	s0,24(sp)
    872c:	02010413          	addi	s0,sp,32
    8730:	00050793          	mv	a5,a0
    8734:	feb42423          	sw	a1,-24(s0)
    8738:	fec42223          	sw	a2,-28(s0)
    873c:	fed42023          	sw	a3,-32(s0)
    8740:	fef407a3          	sb	a5,-17(s0)
    8744:	fef44783          	lbu	a5,-17(s0)
    8748:	00078863          	beqz	a5,8758 <_out_char+0x38>
    874c:	fef44783          	lbu	a5,-17(s0)
    8750:	00078513          	mv	a0,a5
    8754:	1f5020ef          	jal	ra,b148 <_putchar>
    8758:	00000013          	nop
    875c:	01c12083          	lw	ra,28(sp)
    8760:	01812403          	lw	s0,24(sp)
    8764:	02010113          	addi	sp,sp,32
    8768:	00008067          	ret

0000876c <_out_fct>:
    876c:	fe010113          	addi	sp,sp,-32
    8770:	00112e23          	sw	ra,28(sp)
    8774:	00812c23          	sw	s0,24(sp)
    8778:	02010413          	addi	s0,sp,32
    877c:	00050793          	mv	a5,a0
    8780:	feb42423          	sw	a1,-24(s0)
    8784:	fec42223          	sw	a2,-28(s0)
    8788:	fed42023          	sw	a3,-32(s0)
    878c:	fef407a3          	sb	a5,-17(s0)
    8790:	fef44783          	lbu	a5,-17(s0)
    8794:	02078263          	beqz	a5,87b8 <_out_fct+0x4c>
    8798:	fe842783          	lw	a5,-24(s0)
    879c:	0007a683          	lw	a3,0(a5)
    87a0:	fe842783          	lw	a5,-24(s0)
    87a4:	0047a703          	lw	a4,4(a5)
    87a8:	fef44783          	lbu	a5,-17(s0)
    87ac:	00070593          	mv	a1,a4
    87b0:	00078513          	mv	a0,a5
    87b4:	000680e7          	jalr	a3
    87b8:	00000013          	nop
    87bc:	01c12083          	lw	ra,28(sp)
    87c0:	01812403          	lw	s0,24(sp)
    87c4:	02010113          	addi	sp,sp,32
    87c8:	00008067          	ret

000087cc <_strnlen_s>:
    87cc:	fd010113          	addi	sp,sp,-48
    87d0:	02812623          	sw	s0,44(sp)
    87d4:	03010413          	addi	s0,sp,48
    87d8:	fca42e23          	sw	a0,-36(s0)
    87dc:	fcb42c23          	sw	a1,-40(s0)
    87e0:	fdc42783          	lw	a5,-36(s0)
    87e4:	fef42623          	sw	a5,-20(s0)
    87e8:	0100006f          	j	87f8 <_strnlen_s+0x2c>
    87ec:	fec42783          	lw	a5,-20(s0)
    87f0:	00178793          	addi	a5,a5,1
    87f4:	fef42623          	sw	a5,-20(s0)
    87f8:	fec42783          	lw	a5,-20(s0)
    87fc:	0007c783          	lbu	a5,0(a5)
    8800:	00078a63          	beqz	a5,8814 <_strnlen_s+0x48>
    8804:	fd842783          	lw	a5,-40(s0)
    8808:	fff78713          	addi	a4,a5,-1
    880c:	fce42c23          	sw	a4,-40(s0)
    8810:	fc079ee3          	bnez	a5,87ec <_strnlen_s+0x20>
    8814:	fec42703          	lw	a4,-20(s0)
    8818:	fdc42783          	lw	a5,-36(s0)
    881c:	40f707b3          	sub	a5,a4,a5
    8820:	00078513          	mv	a0,a5
    8824:	02c12403          	lw	s0,44(sp)
    8828:	03010113          	addi	sp,sp,48
    882c:	00008067          	ret

00008830 <_is_digit>:
    8830:	fe010113          	addi	sp,sp,-32
    8834:	00812e23          	sw	s0,28(sp)
    8838:	02010413          	addi	s0,sp,32
    883c:	00050793          	mv	a5,a0
    8840:	fef407a3          	sb	a5,-17(s0)
    8844:	fef44703          	lbu	a4,-17(s0)
    8848:	02f00793          	li	a5,47
    884c:	00e7fc63          	bgeu	a5,a4,8864 <_is_digit+0x34>
    8850:	fef44703          	lbu	a4,-17(s0)
    8854:	03900793          	li	a5,57
    8858:	00e7e663          	bltu	a5,a4,8864 <_is_digit+0x34>
    885c:	00100793          	li	a5,1
    8860:	0080006f          	j	8868 <_is_digit+0x38>
    8864:	00000793          	li	a5,0
    8868:	0017f793          	andi	a5,a5,1
    886c:	0ff7f793          	zext.b	a5,a5
    8870:	00078513          	mv	a0,a5
    8874:	01c12403          	lw	s0,28(sp)
    8878:	02010113          	addi	sp,sp,32
    887c:	00008067          	ret

00008880 <_atoi>:
    8880:	fd010113          	addi	sp,sp,-48
    8884:	02112623          	sw	ra,44(sp)
    8888:	02812423          	sw	s0,40(sp)
    888c:	03010413          	addi	s0,sp,48
    8890:	fca42e23          	sw	a0,-36(s0)
    8894:	fe042623          	sw	zero,-20(s0)
    8898:	0400006f          	j	88d8 <_atoi+0x58>
    889c:	fec42703          	lw	a4,-20(s0)
    88a0:	00070793          	mv	a5,a4
    88a4:	00279793          	slli	a5,a5,0x2
    88a8:	00e787b3          	add	a5,a5,a4
    88ac:	00179793          	slli	a5,a5,0x1
    88b0:	00078613          	mv	a2,a5
    88b4:	fdc42783          	lw	a5,-36(s0)
    88b8:	0007a783          	lw	a5,0(a5)
    88bc:	00178693          	addi	a3,a5,1
    88c0:	fdc42703          	lw	a4,-36(s0)
    88c4:	00d72023          	sw	a3,0(a4)
    88c8:	0007c783          	lbu	a5,0(a5)
    88cc:	00f607b3          	add	a5,a2,a5
    88d0:	fd078793          	addi	a5,a5,-48
    88d4:	fef42623          	sw	a5,-20(s0)
    88d8:	fdc42783          	lw	a5,-36(s0)
    88dc:	0007a783          	lw	a5,0(a5)
    88e0:	0007c783          	lbu	a5,0(a5)
    88e4:	00078513          	mv	a0,a5
    88e8:	f49ff0ef          	jal	ra,8830 <_is_digit>
    88ec:	00050793          	mv	a5,a0
    88f0:	fa0796e3          	bnez	a5,889c <_atoi+0x1c>
    88f4:	fec42783          	lw	a5,-20(s0)
    88f8:	00078513          	mv	a0,a5
    88fc:	02c12083          	lw	ra,44(sp)
    8900:	02812403          	lw	s0,40(sp)
    8904:	03010113          	addi	sp,sp,48
    8908:	00008067          	ret

0000890c <_out_rev>:
    890c:	fc010113          	addi	sp,sp,-64
    8910:	02112e23          	sw	ra,60(sp)
    8914:	02812c23          	sw	s0,56(sp)
    8918:	04010413          	addi	s0,sp,64
    891c:	fca42e23          	sw	a0,-36(s0)
    8920:	fcb42c23          	sw	a1,-40(s0)
    8924:	fcc42a23          	sw	a2,-44(s0)
    8928:	fcd42823          	sw	a3,-48(s0)
    892c:	fce42623          	sw	a4,-52(s0)
    8930:	fcf42423          	sw	a5,-56(s0)
    8934:	fd042223          	sw	a6,-60(s0)
    8938:	fd142023          	sw	a7,-64(s0)
    893c:	fd442783          	lw	a5,-44(s0)
    8940:	fef42423          	sw	a5,-24(s0)
    8944:	fc042783          	lw	a5,-64(s0)
    8948:	0027f793          	andi	a5,a5,2
    894c:	08079c63          	bnez	a5,89e4 <_out_rev+0xd8>
    8950:	fc042783          	lw	a5,-64(s0)
    8954:	0017f793          	andi	a5,a5,1
    8958:	08079663          	bnez	a5,89e4 <_out_rev+0xd8>
    895c:	fc842783          	lw	a5,-56(s0)
    8960:	fef42623          	sw	a5,-20(s0)
    8964:	0340006f          	j	8998 <_out_rev+0x8c>
    8968:	fd442783          	lw	a5,-44(s0)
    896c:	00178713          	addi	a4,a5,1
    8970:	fce42a23          	sw	a4,-44(s0)
    8974:	fdc42703          	lw	a4,-36(s0)
    8978:	fd042683          	lw	a3,-48(s0)
    897c:	00078613          	mv	a2,a5
    8980:	fd842583          	lw	a1,-40(s0)
    8984:	02000513          	li	a0,32
    8988:	000700e7          	jalr	a4
    898c:	fec42783          	lw	a5,-20(s0)
    8990:	00178793          	addi	a5,a5,1
    8994:	fef42623          	sw	a5,-20(s0)
    8998:	fec42703          	lw	a4,-20(s0)
    899c:	fc442783          	lw	a5,-60(s0)
    89a0:	fcf764e3          	bltu	a4,a5,8968 <_out_rev+0x5c>
    89a4:	0400006f          	j	89e4 <_out_rev+0xd8>
    89a8:	fc842783          	lw	a5,-56(s0)
    89ac:	fff78793          	addi	a5,a5,-1
    89b0:	fcf42423          	sw	a5,-56(s0)
    89b4:	fcc42703          	lw	a4,-52(s0)
    89b8:	fc842783          	lw	a5,-56(s0)
    89bc:	00f707b3          	add	a5,a4,a5
    89c0:	0007c503          	lbu	a0,0(a5)
    89c4:	fd442783          	lw	a5,-44(s0)
    89c8:	00178713          	addi	a4,a5,1
    89cc:	fce42a23          	sw	a4,-44(s0)
    89d0:	fdc42703          	lw	a4,-36(s0)
    89d4:	fd042683          	lw	a3,-48(s0)
    89d8:	00078613          	mv	a2,a5
    89dc:	fd842583          	lw	a1,-40(s0)
    89e0:	000700e7          	jalr	a4
    89e4:	fc842783          	lw	a5,-56(s0)
    89e8:	fc0790e3          	bnez	a5,89a8 <_out_rev+0x9c>
    89ec:	fc042783          	lw	a5,-64(s0)
    89f0:	0027f793          	andi	a5,a5,2
    89f4:	04078063          	beqz	a5,8a34 <_out_rev+0x128>
    89f8:	0280006f          	j	8a20 <_out_rev+0x114>
    89fc:	fd442783          	lw	a5,-44(s0)
    8a00:	00178713          	addi	a4,a5,1
    8a04:	fce42a23          	sw	a4,-44(s0)
    8a08:	fdc42703          	lw	a4,-36(s0)
    8a0c:	fd042683          	lw	a3,-48(s0)
    8a10:	00078613          	mv	a2,a5
    8a14:	fd842583          	lw	a1,-40(s0)
    8a18:	02000513          	li	a0,32
    8a1c:	000700e7          	jalr	a4
    8a20:	fd442703          	lw	a4,-44(s0)
    8a24:	fe842783          	lw	a5,-24(s0)
    8a28:	40f707b3          	sub	a5,a4,a5
    8a2c:	fc442703          	lw	a4,-60(s0)
    8a30:	fce7e6e3          	bltu	a5,a4,89fc <_out_rev+0xf0>
    8a34:	fd442783          	lw	a5,-44(s0)
    8a38:	00078513          	mv	a0,a5
    8a3c:	03c12083          	lw	ra,60(sp)
    8a40:	03812403          	lw	s0,56(sp)
    8a44:	04010113          	addi	sp,sp,64
    8a48:	00008067          	ret

00008a4c <_ntoa_format>:
    8a4c:	fd010113          	addi	sp,sp,-48
    8a50:	02112623          	sw	ra,44(sp)
    8a54:	02812423          	sw	s0,40(sp)
    8a58:	03010413          	addi	s0,sp,48
    8a5c:	fea42623          	sw	a0,-20(s0)
    8a60:	feb42423          	sw	a1,-24(s0)
    8a64:	fec42223          	sw	a2,-28(s0)
    8a68:	fed42023          	sw	a3,-32(s0)
    8a6c:	fce42e23          	sw	a4,-36(s0)
    8a70:	fcf42c23          	sw	a5,-40(s0)
    8a74:	00080793          	mv	a5,a6
    8a78:	fd142823          	sw	a7,-48(s0)
    8a7c:	fcf40ba3          	sb	a5,-41(s0)
    8a80:	00842783          	lw	a5,8(s0)
    8a84:	0027f793          	andi	a5,a5,2
    8a88:	0a079a63          	bnez	a5,8b3c <_ntoa_format+0xf0>
    8a8c:	00442783          	lw	a5,4(s0)
    8a90:	04078863          	beqz	a5,8ae0 <_ntoa_format+0x94>
    8a94:	00842783          	lw	a5,8(s0)
    8a98:	0017f793          	andi	a5,a5,1
    8a9c:	04078263          	beqz	a5,8ae0 <_ntoa_format+0x94>
    8aa0:	fd744783          	lbu	a5,-41(s0)
    8aa4:	00079863          	bnez	a5,8ab4 <_ntoa_format+0x68>
    8aa8:	00842783          	lw	a5,8(s0)
    8aac:	00c7f793          	andi	a5,a5,12
    8ab0:	02078863          	beqz	a5,8ae0 <_ntoa_format+0x94>
    8ab4:	00442783          	lw	a5,4(s0)
    8ab8:	fff78793          	addi	a5,a5,-1
    8abc:	00f42223          	sw	a5,4(s0)
    8ac0:	0200006f          	j	8ae0 <_ntoa_format+0x94>
    8ac4:	fd842783          	lw	a5,-40(s0)
    8ac8:	00178713          	addi	a4,a5,1
    8acc:	fce42c23          	sw	a4,-40(s0)
    8ad0:	fdc42703          	lw	a4,-36(s0)
    8ad4:	00f707b3          	add	a5,a4,a5
    8ad8:	03000713          	li	a4,48
    8adc:	00e78023          	sb	a4,0(a5)
    8ae0:	fd842703          	lw	a4,-40(s0)
    8ae4:	00042783          	lw	a5,0(s0)
    8ae8:	02f77863          	bgeu	a4,a5,8b18 <_ntoa_format+0xcc>
    8aec:	fd842703          	lw	a4,-40(s0)
    8af0:	01f00793          	li	a5,31
    8af4:	fce7f8e3          	bgeu	a5,a4,8ac4 <_ntoa_format+0x78>
    8af8:	0200006f          	j	8b18 <_ntoa_format+0xcc>
    8afc:	fd842783          	lw	a5,-40(s0)
    8b00:	00178713          	addi	a4,a5,1
    8b04:	fce42c23          	sw	a4,-40(s0)
    8b08:	fdc42703          	lw	a4,-36(s0)
    8b0c:	00f707b3          	add	a5,a4,a5
    8b10:	03000713          	li	a4,48
    8b14:	00e78023          	sb	a4,0(a5)
    8b18:	00842783          	lw	a5,8(s0)
    8b1c:	0017f793          	andi	a5,a5,1
    8b20:	00078e63          	beqz	a5,8b3c <_ntoa_format+0xf0>
    8b24:	fd842703          	lw	a4,-40(s0)
    8b28:	00442783          	lw	a5,4(s0)
    8b2c:	00f77863          	bgeu	a4,a5,8b3c <_ntoa_format+0xf0>
    8b30:	fd842703          	lw	a4,-40(s0)
    8b34:	01f00793          	li	a5,31
    8b38:	fce7f2e3          	bgeu	a5,a4,8afc <_ntoa_format+0xb0>
    8b3c:	00842783          	lw	a5,8(s0)
    8b40:	0107f793          	andi	a5,a5,16
    8b44:	14078063          	beqz	a5,8c84 <_ntoa_format+0x238>
    8b48:	00842783          	lw	a5,8(s0)
    8b4c:	4007f793          	andi	a5,a5,1024
    8b50:	04079863          	bnez	a5,8ba0 <_ntoa_format+0x154>
    8b54:	fd842783          	lw	a5,-40(s0)
    8b58:	04078463          	beqz	a5,8ba0 <_ntoa_format+0x154>
    8b5c:	fd842703          	lw	a4,-40(s0)
    8b60:	00042783          	lw	a5,0(s0)
    8b64:	00f70863          	beq	a4,a5,8b74 <_ntoa_format+0x128>
    8b68:	fd842703          	lw	a4,-40(s0)
    8b6c:	00442783          	lw	a5,4(s0)
    8b70:	02f71863          	bne	a4,a5,8ba0 <_ntoa_format+0x154>
    8b74:	fd842783          	lw	a5,-40(s0)
    8b78:	fff78793          	addi	a5,a5,-1
    8b7c:	fcf42c23          	sw	a5,-40(s0)
    8b80:	fd842783          	lw	a5,-40(s0)
    8b84:	00078e63          	beqz	a5,8ba0 <_ntoa_format+0x154>
    8b88:	fd042703          	lw	a4,-48(s0)
    8b8c:	01000793          	li	a5,16
    8b90:	00f71863          	bne	a4,a5,8ba0 <_ntoa_format+0x154>
    8b94:	fd842783          	lw	a5,-40(s0)
    8b98:	fff78793          	addi	a5,a5,-1
    8b9c:	fcf42c23          	sw	a5,-40(s0)
    8ba0:	fd042703          	lw	a4,-48(s0)
    8ba4:	01000793          	li	a5,16
    8ba8:	02f71e63          	bne	a4,a5,8be4 <_ntoa_format+0x198>
    8bac:	00842783          	lw	a5,8(s0)
    8bb0:	0207f793          	andi	a5,a5,32
    8bb4:	02079863          	bnez	a5,8be4 <_ntoa_format+0x198>
    8bb8:	fd842703          	lw	a4,-40(s0)
    8bbc:	01f00793          	li	a5,31
    8bc0:	02e7e263          	bltu	a5,a4,8be4 <_ntoa_format+0x198>
    8bc4:	fd842783          	lw	a5,-40(s0)
    8bc8:	00178713          	addi	a4,a5,1
    8bcc:	fce42c23          	sw	a4,-40(s0)
    8bd0:	fdc42703          	lw	a4,-36(s0)
    8bd4:	00f707b3          	add	a5,a4,a5
    8bd8:	07800713          	li	a4,120
    8bdc:	00e78023          	sb	a4,0(a5)
    8be0:	07c0006f          	j	8c5c <_ntoa_format+0x210>
    8be4:	fd042703          	lw	a4,-48(s0)
    8be8:	01000793          	li	a5,16
    8bec:	02f71e63          	bne	a4,a5,8c28 <_ntoa_format+0x1dc>
    8bf0:	00842783          	lw	a5,8(s0)
    8bf4:	0207f793          	andi	a5,a5,32
    8bf8:	02078863          	beqz	a5,8c28 <_ntoa_format+0x1dc>
    8bfc:	fd842703          	lw	a4,-40(s0)
    8c00:	01f00793          	li	a5,31
    8c04:	02e7e263          	bltu	a5,a4,8c28 <_ntoa_format+0x1dc>
    8c08:	fd842783          	lw	a5,-40(s0)
    8c0c:	00178713          	addi	a4,a5,1
    8c10:	fce42c23          	sw	a4,-40(s0)
    8c14:	fdc42703          	lw	a4,-36(s0)
    8c18:	00f707b3          	add	a5,a4,a5
    8c1c:	05800713          	li	a4,88
    8c20:	00e78023          	sb	a4,0(a5)
    8c24:	0380006f          	j	8c5c <_ntoa_format+0x210>
    8c28:	fd042703          	lw	a4,-48(s0)
    8c2c:	00200793          	li	a5,2
    8c30:	02f71663          	bne	a4,a5,8c5c <_ntoa_format+0x210>
    8c34:	fd842703          	lw	a4,-40(s0)
    8c38:	01f00793          	li	a5,31
    8c3c:	02e7e063          	bltu	a5,a4,8c5c <_ntoa_format+0x210>
    8c40:	fd842783          	lw	a5,-40(s0)
    8c44:	00178713          	addi	a4,a5,1
    8c48:	fce42c23          	sw	a4,-40(s0)
    8c4c:	fdc42703          	lw	a4,-36(s0)
    8c50:	00f707b3          	add	a5,a4,a5
    8c54:	06200713          	li	a4,98
    8c58:	00e78023          	sb	a4,0(a5)
    8c5c:	fd842703          	lw	a4,-40(s0)
    8c60:	01f00793          	li	a5,31
    8c64:	02e7e063          	bltu	a5,a4,8c84 <_ntoa_format+0x238>
    8c68:	fd842783          	lw	a5,-40(s0)
    8c6c:	00178713          	addi	a4,a5,1
    8c70:	fce42c23          	sw	a4,-40(s0)
    8c74:	fdc42703          	lw	a4,-36(s0)
    8c78:	00f707b3          	add	a5,a4,a5
    8c7c:	03000713          	li	a4,48
    8c80:	00e78023          	sb	a4,0(a5)
    8c84:	fd842703          	lw	a4,-40(s0)
    8c88:	01f00793          	li	a5,31
    8c8c:	08e7e063          	bltu	a5,a4,8d0c <_ntoa_format+0x2c0>
    8c90:	fd744783          	lbu	a5,-41(s0)
    8c94:	02078263          	beqz	a5,8cb8 <_ntoa_format+0x26c>
    8c98:	fd842783          	lw	a5,-40(s0)
    8c9c:	00178713          	addi	a4,a5,1
    8ca0:	fce42c23          	sw	a4,-40(s0)
    8ca4:	fdc42703          	lw	a4,-36(s0)
    8ca8:	00f707b3          	add	a5,a4,a5
    8cac:	02d00713          	li	a4,45
    8cb0:	00e78023          	sb	a4,0(a5)
    8cb4:	0580006f          	j	8d0c <_ntoa_format+0x2c0>
    8cb8:	00842783          	lw	a5,8(s0)
    8cbc:	0047f793          	andi	a5,a5,4
    8cc0:	02078263          	beqz	a5,8ce4 <_ntoa_format+0x298>
    8cc4:	fd842783          	lw	a5,-40(s0)
    8cc8:	00178713          	addi	a4,a5,1
    8ccc:	fce42c23          	sw	a4,-40(s0)
    8cd0:	fdc42703          	lw	a4,-36(s0)
    8cd4:	00f707b3          	add	a5,a4,a5
    8cd8:	02b00713          	li	a4,43
    8cdc:	00e78023          	sb	a4,0(a5)
    8ce0:	02c0006f          	j	8d0c <_ntoa_format+0x2c0>
    8ce4:	00842783          	lw	a5,8(s0)
    8ce8:	0087f793          	andi	a5,a5,8
    8cec:	02078063          	beqz	a5,8d0c <_ntoa_format+0x2c0>
    8cf0:	fd842783          	lw	a5,-40(s0)
    8cf4:	00178713          	addi	a4,a5,1
    8cf8:	fce42c23          	sw	a4,-40(s0)
    8cfc:	fdc42703          	lw	a4,-36(s0)
    8d00:	00f707b3          	add	a5,a4,a5
    8d04:	02000713          	li	a4,32
    8d08:	00e78023          	sb	a4,0(a5)
    8d0c:	00842883          	lw	a7,8(s0)
    8d10:	00442803          	lw	a6,4(s0)
    8d14:	fd842783          	lw	a5,-40(s0)
    8d18:	fdc42703          	lw	a4,-36(s0)
    8d1c:	fe042683          	lw	a3,-32(s0)
    8d20:	fe442603          	lw	a2,-28(s0)
    8d24:	fe842583          	lw	a1,-24(s0)
    8d28:	fec42503          	lw	a0,-20(s0)
    8d2c:	be1ff0ef          	jal	ra,890c <_out_rev>
    8d30:	00050793          	mv	a5,a0
    8d34:	00078513          	mv	a0,a5
    8d38:	02c12083          	lw	ra,44(sp)
    8d3c:	02812403          	lw	s0,40(sp)
    8d40:	03010113          	addi	sp,sp,48
    8d44:	00008067          	ret

00008d48 <_ntoa_long>:
    8d48:	f9010113          	addi	sp,sp,-112
    8d4c:	06112623          	sw	ra,108(sp)
    8d50:	06812423          	sw	s0,104(sp)
    8d54:	07010413          	addi	s0,sp,112
    8d58:	faa42e23          	sw	a0,-68(s0)
    8d5c:	fab42c23          	sw	a1,-72(s0)
    8d60:	fac42a23          	sw	a2,-76(s0)
    8d64:	fad42823          	sw	a3,-80(s0)
    8d68:	fae42623          	sw	a4,-84(s0)
    8d6c:	fb042223          	sw	a6,-92(s0)
    8d70:	fb142023          	sw	a7,-96(s0)
    8d74:	faf405a3          	sb	a5,-85(s0)
    8d78:	fe042623          	sw	zero,-20(s0)
    8d7c:	fac42783          	lw	a5,-84(s0)
    8d80:	00079863          	bnez	a5,8d90 <_ntoa_long+0x48>
    8d84:	00442783          	lw	a5,4(s0)
    8d88:	fef7f793          	andi	a5,a5,-17
    8d8c:	00f42223          	sw	a5,4(s0)
    8d90:	00442783          	lw	a5,4(s0)
    8d94:	4007f793          	andi	a5,a5,1024
    8d98:	00078663          	beqz	a5,8da4 <_ntoa_long+0x5c>
    8d9c:	fac42783          	lw	a5,-84(s0)
    8da0:	08078c63          	beqz	a5,8e38 <_ntoa_long+0xf0>
    8da4:	fac42703          	lw	a4,-84(s0)
    8da8:	fa442783          	lw	a5,-92(s0)
    8dac:	02f777b3          	remu	a5,a4,a5
    8db0:	fef405a3          	sb	a5,-21(s0)
    8db4:	feb44703          	lbu	a4,-21(s0)
    8db8:	00900793          	li	a5,9
    8dbc:	00e7ea63          	bltu	a5,a4,8dd0 <_ntoa_long+0x88>
    8dc0:	feb44783          	lbu	a5,-21(s0)
    8dc4:	03078793          	addi	a5,a5,48
    8dc8:	0ff7f793          	zext.b	a5,a5
    8dcc:	0300006f          	j	8dfc <_ntoa_long+0xb4>
    8dd0:	00442783          	lw	a5,4(s0)
    8dd4:	0207f793          	andi	a5,a5,32
    8dd8:	00078663          	beqz	a5,8de4 <_ntoa_long+0x9c>
    8ddc:	04100793          	li	a5,65
    8de0:	0080006f          	j	8de8 <_ntoa_long+0xa0>
    8de4:	06100793          	li	a5,97
    8de8:	feb44703          	lbu	a4,-21(s0)
    8dec:	00e787b3          	add	a5,a5,a4
    8df0:	0ff7f793          	zext.b	a5,a5
    8df4:	ff678793          	addi	a5,a5,-10
    8df8:	0ff7f793          	zext.b	a5,a5
    8dfc:	fec42703          	lw	a4,-20(s0)
    8e00:	00170693          	addi	a3,a4,1
    8e04:	fed42623          	sw	a3,-20(s0)
    8e08:	ff070713          	addi	a4,a4,-16
    8e0c:	00870733          	add	a4,a4,s0
    8e10:	fcf70c23          	sb	a5,-40(a4)
    8e14:	fac42703          	lw	a4,-84(s0)
    8e18:	fa442783          	lw	a5,-92(s0)
    8e1c:	02f757b3          	divu	a5,a4,a5
    8e20:	faf42623          	sw	a5,-84(s0)
    8e24:	fac42783          	lw	a5,-84(s0)
    8e28:	00078863          	beqz	a5,8e38 <_ntoa_long+0xf0>
    8e2c:	fec42703          	lw	a4,-20(s0)
    8e30:	01f00793          	li	a5,31
    8e34:	f6e7f8e3          	bgeu	a5,a4,8da4 <_ntoa_long+0x5c>
    8e38:	fab44683          	lbu	a3,-85(s0)
    8e3c:	fc840713          	addi	a4,s0,-56
    8e40:	00442783          	lw	a5,4(s0)
    8e44:	00f12423          	sw	a5,8(sp)
    8e48:	00042783          	lw	a5,0(s0)
    8e4c:	00f12223          	sw	a5,4(sp)
    8e50:	fa042783          	lw	a5,-96(s0)
    8e54:	00f12023          	sw	a5,0(sp)
    8e58:	fa442883          	lw	a7,-92(s0)
    8e5c:	00068813          	mv	a6,a3
    8e60:	fec42783          	lw	a5,-20(s0)
    8e64:	fb042683          	lw	a3,-80(s0)
    8e68:	fb442603          	lw	a2,-76(s0)
    8e6c:	fb842583          	lw	a1,-72(s0)
    8e70:	fbc42503          	lw	a0,-68(s0)
    8e74:	bd9ff0ef          	jal	ra,8a4c <_ntoa_format>
    8e78:	00050793          	mv	a5,a0
    8e7c:	00078513          	mv	a0,a5
    8e80:	06c12083          	lw	ra,108(sp)
    8e84:	06812403          	lw	s0,104(sp)
    8e88:	07010113          	addi	sp,sp,112
    8e8c:	00008067          	ret

00008e90 <_ntoa_long_long>:
    8e90:	f8010113          	addi	sp,sp,-128
    8e94:	06112623          	sw	ra,108(sp)
    8e98:	06812423          	sw	s0,104(sp)
    8e9c:	07010413          	addi	s0,sp,112
    8ea0:	faa42e23          	sw	a0,-68(s0)
    8ea4:	fab42c23          	sw	a1,-72(s0)
    8ea8:	fac42a23          	sw	a2,-76(s0)
    8eac:	fad42823          	sw	a3,-80(s0)
    8eb0:	fae42423          	sw	a4,-88(s0)
    8eb4:	faf42623          	sw	a5,-84(s0)
    8eb8:	00080793          	mv	a5,a6
    8ebc:	01142623          	sw	a7,12(s0)
    8ec0:	faf403a3          	sb	a5,-89(s0)
    8ec4:	fe042623          	sw	zero,-20(s0)
    8ec8:	fa842783          	lw	a5,-88(s0)
    8ecc:	fac42703          	lw	a4,-84(s0)
    8ed0:	00e7e7b3          	or	a5,a5,a4
    8ed4:	00079863          	bnez	a5,8ee4 <_ntoa_long_long+0x54>
    8ed8:	01c42783          	lw	a5,28(s0)
    8edc:	fef7f793          	andi	a5,a5,-17
    8ee0:	00f42e23          	sw	a5,28(s0)
    8ee4:	01c42783          	lw	a5,28(s0)
    8ee8:	4007f793          	andi	a5,a5,1024
    8eec:	00078a63          	beqz	a5,8f00 <_ntoa_long_long+0x70>
    8ef0:	fa842783          	lw	a5,-88(s0)
    8ef4:	fac42703          	lw	a4,-84(s0)
    8ef8:	00e7e7b3          	or	a5,a5,a4
    8efc:	0c078663          	beqz	a5,8fc8 <_ntoa_long_long+0x138>
    8f00:	fa842703          	lw	a4,-88(s0)
    8f04:	fac42783          	lw	a5,-84(s0)
    8f08:	00c42603          	lw	a2,12(s0)
    8f0c:	01042683          	lw	a3,16(s0)
    8f10:	00070513          	mv	a0,a4
    8f14:	00078593          	mv	a1,a5
    8f18:	01c030ef          	jal	ra,bf34 <__umoddi3>
    8f1c:	00050713          	mv	a4,a0
    8f20:	00058793          	mv	a5,a1
    8f24:	fee405a3          	sb	a4,-21(s0)
    8f28:	feb44703          	lbu	a4,-21(s0)
    8f2c:	00900793          	li	a5,9
    8f30:	00e7ea63          	bltu	a5,a4,8f44 <_ntoa_long_long+0xb4>
    8f34:	feb44783          	lbu	a5,-21(s0)
    8f38:	03078793          	addi	a5,a5,48
    8f3c:	0ff7f793          	zext.b	a5,a5
    8f40:	0300006f          	j	8f70 <_ntoa_long_long+0xe0>
    8f44:	01c42783          	lw	a5,28(s0)
    8f48:	0207f793          	andi	a5,a5,32
    8f4c:	00078663          	beqz	a5,8f58 <_ntoa_long_long+0xc8>
    8f50:	04100793          	li	a5,65
    8f54:	0080006f          	j	8f5c <_ntoa_long_long+0xcc>
    8f58:	06100793          	li	a5,97
    8f5c:	feb44703          	lbu	a4,-21(s0)
    8f60:	00e787b3          	add	a5,a5,a4
    8f64:	0ff7f793          	zext.b	a5,a5
    8f68:	ff678793          	addi	a5,a5,-10
    8f6c:	0ff7f793          	zext.b	a5,a5
    8f70:	fec42703          	lw	a4,-20(s0)
    8f74:	00170693          	addi	a3,a4,1
    8f78:	fed42623          	sw	a3,-20(s0)
    8f7c:	ff070713          	addi	a4,a4,-16
    8f80:	00870733          	add	a4,a4,s0
    8f84:	fcf70c23          	sb	a5,-40(a4)
    8f88:	00c42603          	lw	a2,12(s0)
    8f8c:	01042683          	lw	a3,16(s0)
    8f90:	fa842503          	lw	a0,-88(s0)
    8f94:	fac42583          	lw	a1,-84(s0)
    8f98:	36d020ef          	jal	ra,bb04 <__udivdi3>
    8f9c:	00050713          	mv	a4,a0
    8fa0:	00058793          	mv	a5,a1
    8fa4:	fae42423          	sw	a4,-88(s0)
    8fa8:	faf42623          	sw	a5,-84(s0)
    8fac:	fa842783          	lw	a5,-88(s0)
    8fb0:	fac42703          	lw	a4,-84(s0)
    8fb4:	00e7e7b3          	or	a5,a5,a4
    8fb8:	00078863          	beqz	a5,8fc8 <_ntoa_long_long+0x138>
    8fbc:	fec42703          	lw	a4,-20(s0)
    8fc0:	01f00793          	li	a5,31
    8fc4:	f2e7fee3          	bgeu	a5,a4,8f00 <_ntoa_long_long+0x70>
    8fc8:	00c42603          	lw	a2,12(s0)
    8fcc:	fa744683          	lbu	a3,-89(s0)
    8fd0:	fc840713          	addi	a4,s0,-56
    8fd4:	01c42783          	lw	a5,28(s0)
    8fd8:	00f12423          	sw	a5,8(sp)
    8fdc:	01842783          	lw	a5,24(s0)
    8fe0:	00f12223          	sw	a5,4(sp)
    8fe4:	01442783          	lw	a5,20(s0)
    8fe8:	00f12023          	sw	a5,0(sp)
    8fec:	00060893          	mv	a7,a2
    8ff0:	00068813          	mv	a6,a3
    8ff4:	fec42783          	lw	a5,-20(s0)
    8ff8:	fb042683          	lw	a3,-80(s0)
    8ffc:	fb442603          	lw	a2,-76(s0)
    9000:	fb842583          	lw	a1,-72(s0)
    9004:	fbc42503          	lw	a0,-68(s0)
    9008:	a45ff0ef          	jal	ra,8a4c <_ntoa_format>
    900c:	00050793          	mv	a5,a0
    9010:	00078513          	mv	a0,a5
    9014:	06c12083          	lw	ra,108(sp)
    9018:	06812403          	lw	s0,104(sp)
    901c:	08010113          	addi	sp,sp,128
    9020:	00008067          	ret

00009024 <_ftoa>:
    9024:	f7010113          	addi	sp,sp,-144
    9028:	08112623          	sw	ra,140(sp)
    902c:	08812423          	sw	s0,136(sp)
    9030:	08912223          	sw	s1,132(sp)
    9034:	09010413          	addi	s0,sp,144
    9038:	f8a42e23          	sw	a0,-100(s0)
    903c:	f8b42c23          	sw	a1,-104(s0)
    9040:	f8c42a23          	sw	a2,-108(s0)
    9044:	f8d42823          	sw	a3,-112(s0)
    9048:	f8e42423          	sw	a4,-120(s0)
    904c:	f8f42623          	sw	a5,-116(s0)
    9050:	f9042223          	sw	a6,-124(s0)
    9054:	f9142023          	sw	a7,-128(s0)
    9058:	fe042623          	sw	zero,-20(s0)
    905c:	fc042823          	sw	zero,-48(s0)
    9060:	fc042a23          	sw	zero,-44(s0)
    9064:	f8842603          	lw	a2,-120(s0)
    9068:	f8c42683          	lw	a3,-116(s0)
    906c:	f8842503          	lw	a0,-120(s0)
    9070:	f8c42583          	lw	a1,-116(s0)
    9074:	15c040ef          	jal	ra,d1d0 <__eqdf2>
    9078:	00050793          	mv	a5,a0
    907c:	02078a63          	beqz	a5,90b0 <_ftoa+0x8c>
    9080:	00042883          	lw	a7,0(s0)
    9084:	f8042803          	lw	a6,-128(s0)
    9088:	00300793          	li	a5,3
    908c:	00028737          	lui	a4,0x28
    9090:	03870713          	addi	a4,a4,56 # 28038 <__data_address+0x38>
    9094:	f9042683          	lw	a3,-112(s0)
    9098:	f9442603          	lw	a2,-108(s0)
    909c:	f9842583          	lw	a1,-104(s0)
    90a0:	f9c42503          	lw	a0,-100(s0)
    90a4:	869ff0ef          	jal	ra,890c <_out_rev>
    90a8:	00050793          	mv	a5,a0
    90ac:	6780006f          	j	9724 <_ftoa+0x700>
    90b0:	000287b7          	lui	a5,0x28
    90b4:	2407a603          	lw	a2,576(a5) # 28240 <pow10.0+0x50>
    90b8:	2447a683          	lw	a3,580(a5)
    90bc:	f8842503          	lw	a0,-120(s0)
    90c0:	f8c42583          	lw	a1,-116(s0)
    90c4:	27c040ef          	jal	ra,d340 <__ledf2>
    90c8:	00050793          	mv	a5,a0
    90cc:	0207da63          	bgez	a5,9100 <_ftoa+0xdc>
    90d0:	00042883          	lw	a7,0(s0)
    90d4:	f8042803          	lw	a6,-128(s0)
    90d8:	00400793          	li	a5,4
    90dc:	00028737          	lui	a4,0x28
    90e0:	03c70713          	addi	a4,a4,60 # 2803c <__data_address+0x3c>
    90e4:	f9042683          	lw	a3,-112(s0)
    90e8:	f9442603          	lw	a2,-108(s0)
    90ec:	f9842583          	lw	a1,-104(s0)
    90f0:	f9c42503          	lw	a0,-100(s0)
    90f4:	819ff0ef          	jal	ra,890c <_out_rev>
    90f8:	00050793          	mv	a5,a0
    90fc:	6280006f          	j	9724 <_ftoa+0x700>
    9100:	000287b7          	lui	a5,0x28
    9104:	2487a603          	lw	a2,584(a5) # 28248 <pow10.0+0x58>
    9108:	24c7a683          	lw	a3,588(a5)
    910c:	f8842503          	lw	a0,-120(s0)
    9110:	f8c42583          	lw	a1,-116(s0)
    9114:	148040ef          	jal	ra,d25c <__gedf2>
    9118:	00050793          	mv	a5,a0
    911c:	06f05063          	blez	a5,917c <_ftoa+0x158>
    9120:	00042783          	lw	a5,0(s0)
    9124:	0047f793          	andi	a5,a5,4
    9128:	00078863          	beqz	a5,9138 <_ftoa+0x114>
    912c:	000287b7          	lui	a5,0x28
    9130:	04478713          	addi	a4,a5,68 # 28044 <__data_address+0x44>
    9134:	00c0006f          	j	9140 <_ftoa+0x11c>
    9138:	000287b7          	lui	a5,0x28
    913c:	04c78713          	addi	a4,a5,76 # 2804c <__data_address+0x4c>
    9140:	00042783          	lw	a5,0(s0)
    9144:	0047f793          	andi	a5,a5,4
    9148:	00078663          	beqz	a5,9154 <_ftoa+0x130>
    914c:	00400793          	li	a5,4
    9150:	0080006f          	j	9158 <_ftoa+0x134>
    9154:	00300793          	li	a5,3
    9158:	00042883          	lw	a7,0(s0)
    915c:	f8042803          	lw	a6,-128(s0)
    9160:	f9042683          	lw	a3,-112(s0)
    9164:	f9442603          	lw	a2,-108(s0)
    9168:	f9842583          	lw	a1,-104(s0)
    916c:	f9c42503          	lw	a0,-100(s0)
    9170:	f9cff0ef          	jal	ra,890c <_out_rev>
    9174:	00050793          	mv	a5,a0
    9178:	5ac0006f          	j	9724 <_ftoa+0x700>
    917c:	000287b7          	lui	a5,0x28
    9180:	2507a603          	lw	a2,592(a5) # 28250 <pow10.0+0x60>
    9184:	2547a683          	lw	a3,596(a5)
    9188:	f8842503          	lw	a0,-120(s0)
    918c:	f8c42583          	lw	a1,-116(s0)
    9190:	0cc040ef          	jal	ra,d25c <__gedf2>
    9194:	00050793          	mv	a5,a0
    9198:	02f04263          	bgtz	a5,91bc <_ftoa+0x198>
    919c:	000287b7          	lui	a5,0x28
    91a0:	2587a603          	lw	a2,600(a5) # 28258 <pow10.0+0x68>
    91a4:	25c7a683          	lw	a3,604(a5)
    91a8:	f8842503          	lw	a0,-120(s0)
    91ac:	f8c42583          	lw	a1,-116(s0)
    91b0:	190040ef          	jal	ra,d340 <__ledf2>
    91b4:	00050793          	mv	a5,a0
    91b8:	0207dc63          	bgez	a5,91f0 <_ftoa+0x1cc>
    91bc:	00042783          	lw	a5,0(s0)
    91c0:	00f12023          	sw	a5,0(sp)
    91c4:	f8042883          	lw	a7,-128(s0)
    91c8:	f8442803          	lw	a6,-124(s0)
    91cc:	f8842703          	lw	a4,-120(s0)
    91d0:	f8c42783          	lw	a5,-116(s0)
    91d4:	f9042683          	lw	a3,-112(s0)
    91d8:	f9442603          	lw	a2,-108(s0)
    91dc:	f9842583          	lw	a1,-104(s0)
    91e0:	f9c42503          	lw	a0,-100(s0)
    91e4:	558000ef          	jal	ra,973c <_etoa>
    91e8:	00050793          	mv	a5,a0
    91ec:	5380006f          	j	9724 <_ftoa+0x700>
    91f0:	fe0405a3          	sb	zero,-21(s0)
    91f4:	00000613          	li	a2,0
    91f8:	00000693          	li	a3,0
    91fc:	f8842503          	lw	a0,-120(s0)
    9200:	f8c42583          	lw	a1,-116(s0)
    9204:	13c040ef          	jal	ra,d340 <__ledf2>
    9208:	00050793          	mv	a5,a0
    920c:	0207d863          	bgez	a5,923c <_ftoa+0x218>
    9210:	00100793          	li	a5,1
    9214:	fef405a3          	sb	a5,-21(s0)
    9218:	f8842603          	lw	a2,-120(s0)
    921c:	f8c42683          	lw	a3,-116(s0)
    9220:	00000513          	li	a0,0
    9224:	00000593          	li	a1,0
    9228:	009040ef          	jal	ra,da30 <__subdf3>
    922c:	00050713          	mv	a4,a0
    9230:	00058793          	mv	a5,a1
    9234:	f8e42423          	sw	a4,-120(s0)
    9238:	f8f42623          	sw	a5,-116(s0)
    923c:	00042783          	lw	a5,0(s0)
    9240:	4007f793          	andi	a5,a5,1024
    9244:	02079c63          	bnez	a5,927c <_ftoa+0x258>
    9248:	00600793          	li	a5,6
    924c:	f8f42223          	sw	a5,-124(s0)
    9250:	02c0006f          	j	927c <_ftoa+0x258>
    9254:	fec42783          	lw	a5,-20(s0)
    9258:	00178713          	addi	a4,a5,1
    925c:	fee42623          	sw	a4,-20(s0)
    9260:	ff078793          	addi	a5,a5,-16
    9264:	008787b3          	add	a5,a5,s0
    9268:	03000713          	li	a4,48
    926c:	fae78c23          	sb	a4,-72(a5)
    9270:	f8442783          	lw	a5,-124(s0)
    9274:	fff78793          	addi	a5,a5,-1
    9278:	f8f42223          	sw	a5,-124(s0)
    927c:	fec42703          	lw	a4,-20(s0)
    9280:	01f00793          	li	a5,31
    9284:	00e7e863          	bltu	a5,a4,9294 <_ftoa+0x270>
    9288:	f8442703          	lw	a4,-124(s0)
    928c:	00900793          	li	a5,9
    9290:	fce7e2e3          	bltu	a5,a4,9254 <_ftoa+0x230>
    9294:	f8842503          	lw	a0,-120(s0)
    9298:	f8c42583          	lw	a1,-116(s0)
    929c:	785040ef          	jal	ra,e220 <__fixdfsi>
    92a0:	00050793          	mv	a5,a0
    92a4:	fef42223          	sw	a5,-28(s0)
    92a8:	fe442503          	lw	a0,-28(s0)
    92ac:	070050ef          	jal	ra,e31c <__floatsidf>
    92b0:	00050713          	mv	a4,a0
    92b4:	00058793          	mv	a5,a1
    92b8:	00070613          	mv	a2,a4
    92bc:	00078693          	mv	a3,a5
    92c0:	f8842503          	lw	a0,-120(s0)
    92c4:	f8c42583          	lw	a1,-116(s0)
    92c8:	768040ef          	jal	ra,da30 <__subdf3>
    92cc:	00050713          	mv	a4,a0
    92d0:	00058793          	mv	a5,a1
    92d4:	00070513          	mv	a0,a4
    92d8:	00078593          	mv	a1,a5
    92dc:	000287b7          	lui	a5,0x28
    92e0:	1f078713          	addi	a4,a5,496 # 281f0 <pow10.0>
    92e4:	f8442783          	lw	a5,-124(s0)
    92e8:	00379793          	slli	a5,a5,0x3
    92ec:	00f707b3          	add	a5,a4,a5
    92f0:	0007a703          	lw	a4,0(a5)
    92f4:	0047a783          	lw	a5,4(a5)
    92f8:	00070613          	mv	a2,a4
    92fc:	00078693          	mv	a3,a5
    9300:	124040ef          	jal	ra,d424 <__muldf3>
    9304:	00050713          	mv	a4,a0
    9308:	00058793          	mv	a5,a1
    930c:	fce42423          	sw	a4,-56(s0)
    9310:	fcf42623          	sw	a5,-52(s0)
    9314:	fc842503          	lw	a0,-56(s0)
    9318:	fcc42583          	lw	a1,-52(s0)
    931c:	785040ef          	jal	ra,e2a0 <__fixunsdfsi>
    9320:	00050793          	mv	a5,a0
    9324:	fef42023          	sw	a5,-32(s0)
    9328:	fe042503          	lw	a0,-32(s0)
    932c:	098050ef          	jal	ra,e3c4 <__floatunsidf>
    9330:	00050713          	mv	a4,a0
    9334:	00058793          	mv	a5,a1
    9338:	00070613          	mv	a2,a4
    933c:	00078693          	mv	a3,a5
    9340:	fc842503          	lw	a0,-56(s0)
    9344:	fcc42583          	lw	a1,-52(s0)
    9348:	6e8040ef          	jal	ra,da30 <__subdf3>
    934c:	00050713          	mv	a4,a0
    9350:	00058793          	mv	a5,a1
    9354:	fce42823          	sw	a4,-48(s0)
    9358:	fcf42a23          	sw	a5,-44(s0)
    935c:	000287b7          	lui	a5,0x28
    9360:	2607a603          	lw	a2,608(a5) # 28260 <pow10.0+0x70>
    9364:	2647a683          	lw	a3,612(a5)
    9368:	fd042503          	lw	a0,-48(s0)
    936c:	fd442583          	lw	a1,-44(s0)
    9370:	6ed030ef          	jal	ra,d25c <__gedf2>
    9374:	00050793          	mv	a5,a0
    9378:	04f05e63          	blez	a5,93d4 <_ftoa+0x3b0>
    937c:	fe042783          	lw	a5,-32(s0)
    9380:	00178793          	addi	a5,a5,1
    9384:	fef42023          	sw	a5,-32(s0)
    9388:	fe042503          	lw	a0,-32(s0)
    938c:	038050ef          	jal	ra,e3c4 <__floatunsidf>
    9390:	000287b7          	lui	a5,0x28
    9394:	1f078713          	addi	a4,a5,496 # 281f0 <pow10.0>
    9398:	f8442783          	lw	a5,-124(s0)
    939c:	00379793          	slli	a5,a5,0x3
    93a0:	00f707b3          	add	a5,a4,a5
    93a4:	0007a703          	lw	a4,0(a5)
    93a8:	0047a783          	lw	a5,4(a5)
    93ac:	00070613          	mv	a2,a4
    93b0:	00078693          	mv	a3,a5
    93b4:	6a9030ef          	jal	ra,d25c <__gedf2>
    93b8:	00050793          	mv	a5,a0
    93bc:	0407cc63          	bltz	a5,9414 <_ftoa+0x3f0>
    93c0:	fe042023          	sw	zero,-32(s0)
    93c4:	fe442783          	lw	a5,-28(s0)
    93c8:	00178793          	addi	a5,a5,1
    93cc:	fef42223          	sw	a5,-28(s0)
    93d0:	0440006f          	j	9414 <_ftoa+0x3f0>
    93d4:	000287b7          	lui	a5,0x28
    93d8:	2607a603          	lw	a2,608(a5) # 28260 <pow10.0+0x70>
    93dc:	2647a683          	lw	a3,612(a5)
    93e0:	fd042503          	lw	a0,-48(s0)
    93e4:	fd442583          	lw	a1,-44(s0)
    93e8:	759030ef          	jal	ra,d340 <__ledf2>
    93ec:	00050793          	mv	a5,a0
    93f0:	0207c263          	bltz	a5,9414 <_ftoa+0x3f0>
    93f4:	fe042783          	lw	a5,-32(s0)
    93f8:	00078863          	beqz	a5,9408 <_ftoa+0x3e4>
    93fc:	fe042783          	lw	a5,-32(s0)
    9400:	0017f793          	andi	a5,a5,1
    9404:	00078863          	beqz	a5,9414 <_ftoa+0x3f0>
    9408:	fe042783          	lw	a5,-32(s0)
    940c:	00178793          	addi	a5,a5,1
    9410:	fef42023          	sw	a5,-32(s0)
    9414:	f8442783          	lw	a5,-124(s0)
    9418:	0a079663          	bnez	a5,94c4 <_ftoa+0x4a0>
    941c:	fe442503          	lw	a0,-28(s0)
    9420:	6fd040ef          	jal	ra,e31c <__floatsidf>
    9424:	00050713          	mv	a4,a0
    9428:	00058793          	mv	a5,a1
    942c:	00070613          	mv	a2,a4
    9430:	00078693          	mv	a3,a5
    9434:	f8842503          	lw	a0,-120(s0)
    9438:	f8c42583          	lw	a1,-116(s0)
    943c:	5f4040ef          	jal	ra,da30 <__subdf3>
    9440:	00050713          	mv	a4,a0
    9444:	00058793          	mv	a5,a1
    9448:	fce42823          	sw	a4,-48(s0)
    944c:	fcf42a23          	sw	a5,-44(s0)
    9450:	00100493          	li	s1,1
    9454:	000287b7          	lui	a5,0x28
    9458:	2607a603          	lw	a2,608(a5) # 28260 <pow10.0+0x70>
    945c:	2647a683          	lw	a3,612(a5)
    9460:	fd042503          	lw	a0,-48(s0)
    9464:	fd442583          	lw	a1,-44(s0)
    9468:	6d9030ef          	jal	ra,d340 <__ledf2>
    946c:	00050793          	mv	a5,a0
    9470:	0007c463          	bltz	a5,9478 <_ftoa+0x454>
    9474:	00000493          	li	s1,0
    9478:	0ff4f793          	zext.b	a5,s1
    947c:	0017c793          	xori	a5,a5,1
    9480:	0ff7f793          	zext.b	a5,a5
    9484:	02079263          	bnez	a5,94a8 <_ftoa+0x484>
    9488:	000287b7          	lui	a5,0x28
    948c:	2607a603          	lw	a2,608(a5) # 28260 <pow10.0+0x70>
    9490:	2647a683          	lw	a3,612(a5)
    9494:	fd042503          	lw	a0,-48(s0)
    9498:	fd442583          	lw	a1,-44(s0)
    949c:	5c1030ef          	jal	ra,d25c <__gedf2>
    94a0:	00050793          	mv	a5,a0
    94a4:	0ef05c63          	blez	a5,959c <_ftoa+0x578>
    94a8:	fe442783          	lw	a5,-28(s0)
    94ac:	0017f793          	andi	a5,a5,1
    94b0:	12078c63          	beqz	a5,95e8 <_ftoa+0x5c4>
    94b4:	fe442783          	lw	a5,-28(s0)
    94b8:	00178793          	addi	a5,a5,1
    94bc:	fef42223          	sw	a5,-28(s0)
    94c0:	1280006f          	j	95e8 <_ftoa+0x5c4>
    94c4:	f8442783          	lw	a5,-124(s0)
    94c8:	fcf42e23          	sw	a5,-36(s0)
    94cc:	0580006f          	j	9524 <_ftoa+0x500>
    94d0:	fdc42783          	lw	a5,-36(s0)
    94d4:	fff78793          	addi	a5,a5,-1
    94d8:	fcf42e23          	sw	a5,-36(s0)
    94dc:	fe042703          	lw	a4,-32(s0)
    94e0:	00a00793          	li	a5,10
    94e4:	02f777b3          	remu	a5,a4,a5
    94e8:	0ff7f713          	zext.b	a4,a5
    94ec:	fec42783          	lw	a5,-20(s0)
    94f0:	00178693          	addi	a3,a5,1
    94f4:	fed42623          	sw	a3,-20(s0)
    94f8:	03070713          	addi	a4,a4,48
    94fc:	0ff77713          	zext.b	a4,a4
    9500:	ff078793          	addi	a5,a5,-16
    9504:	008787b3          	add	a5,a5,s0
    9508:	fae78c23          	sb	a4,-72(a5)
    950c:	fe042703          	lw	a4,-32(s0)
    9510:	00a00793          	li	a5,10
    9514:	02f757b3          	divu	a5,a4,a5
    9518:	fef42023          	sw	a5,-32(s0)
    951c:	fe042783          	lw	a5,-32(s0)
    9520:	00078a63          	beqz	a5,9534 <_ftoa+0x510>
    9524:	fec42703          	lw	a4,-20(s0)
    9528:	01f00793          	li	a5,31
    952c:	fae7f2e3          	bgeu	a5,a4,94d0 <_ftoa+0x4ac>
    9530:	0280006f          	j	9558 <_ftoa+0x534>
    9534:	00000013          	nop
    9538:	0200006f          	j	9558 <_ftoa+0x534>
    953c:	fec42783          	lw	a5,-20(s0)
    9540:	00178713          	addi	a4,a5,1
    9544:	fee42623          	sw	a4,-20(s0)
    9548:	ff078793          	addi	a5,a5,-16
    954c:	008787b3          	add	a5,a5,s0
    9550:	03000713          	li	a4,48
    9554:	fae78c23          	sb	a4,-72(a5)
    9558:	fec42703          	lw	a4,-20(s0)
    955c:	01f00793          	li	a5,31
    9560:	00e7ea63          	bltu	a5,a4,9574 <_ftoa+0x550>
    9564:	fdc42783          	lw	a5,-36(s0)
    9568:	fff78713          	addi	a4,a5,-1
    956c:	fce42e23          	sw	a4,-36(s0)
    9570:	fc0796e3          	bnez	a5,953c <_ftoa+0x518>
    9574:	fec42703          	lw	a4,-20(s0)
    9578:	01f00793          	li	a5,31
    957c:	06e7e663          	bltu	a5,a4,95e8 <_ftoa+0x5c4>
    9580:	fec42783          	lw	a5,-20(s0)
    9584:	00178713          	addi	a4,a5,1
    9588:	fee42623          	sw	a4,-20(s0)
    958c:	ff078793          	addi	a5,a5,-16
    9590:	008787b3          	add	a5,a5,s0
    9594:	02e00713          	li	a4,46
    9598:	fae78c23          	sb	a4,-72(a5)
    959c:	04c0006f          	j	95e8 <_ftoa+0x5c4>
    95a0:	fe442703          	lw	a4,-28(s0)
    95a4:	00a00793          	li	a5,10
    95a8:	02f767b3          	rem	a5,a4,a5
    95ac:	0ff7f713          	zext.b	a4,a5
    95b0:	fec42783          	lw	a5,-20(s0)
    95b4:	00178693          	addi	a3,a5,1
    95b8:	fed42623          	sw	a3,-20(s0)
    95bc:	03070713          	addi	a4,a4,48
    95c0:	0ff77713          	zext.b	a4,a4
    95c4:	ff078793          	addi	a5,a5,-16
    95c8:	008787b3          	add	a5,a5,s0
    95cc:	fae78c23          	sb	a4,-72(a5)
    95d0:	fe442703          	lw	a4,-28(s0)
    95d4:	00a00793          	li	a5,10
    95d8:	02f747b3          	div	a5,a4,a5
    95dc:	fef42223          	sw	a5,-28(s0)
    95e0:	fe442783          	lw	a5,-28(s0)
    95e4:	00078a63          	beqz	a5,95f8 <_ftoa+0x5d4>
    95e8:	fec42703          	lw	a4,-20(s0)
    95ec:	01f00793          	li	a5,31
    95f0:	fae7f8e3          	bgeu	a5,a4,95a0 <_ftoa+0x57c>
    95f4:	0080006f          	j	95fc <_ftoa+0x5d8>
    95f8:	00000013          	nop
    95fc:	00042783          	lw	a5,0(s0)
    9600:	0027f793          	andi	a5,a5,2
    9604:	06079863          	bnez	a5,9674 <_ftoa+0x650>
    9608:	00042783          	lw	a5,0(s0)
    960c:	0017f793          	andi	a5,a5,1
    9610:	06078263          	beqz	a5,9674 <_ftoa+0x650>
    9614:	f8042783          	lw	a5,-128(s0)
    9618:	04078263          	beqz	a5,965c <_ftoa+0x638>
    961c:	feb44783          	lbu	a5,-21(s0)
    9620:	00079863          	bnez	a5,9630 <_ftoa+0x60c>
    9624:	00042783          	lw	a5,0(s0)
    9628:	00c7f793          	andi	a5,a5,12
    962c:	02078863          	beqz	a5,965c <_ftoa+0x638>
    9630:	f8042783          	lw	a5,-128(s0)
    9634:	fff78793          	addi	a5,a5,-1
    9638:	f8f42023          	sw	a5,-128(s0)
    963c:	0200006f          	j	965c <_ftoa+0x638>
    9640:	fec42783          	lw	a5,-20(s0)
    9644:	00178713          	addi	a4,a5,1
    9648:	fee42623          	sw	a4,-20(s0)
    964c:	ff078793          	addi	a5,a5,-16
    9650:	008787b3          	add	a5,a5,s0
    9654:	03000713          	li	a4,48
    9658:	fae78c23          	sb	a4,-72(a5)
    965c:	fec42703          	lw	a4,-20(s0)
    9660:	f8042783          	lw	a5,-128(s0)
    9664:	00f77863          	bgeu	a4,a5,9674 <_ftoa+0x650>
    9668:	fec42703          	lw	a4,-20(s0)
    966c:	01f00793          	li	a5,31
    9670:	fce7f8e3          	bgeu	a5,a4,9640 <_ftoa+0x61c>
    9674:	fec42703          	lw	a4,-20(s0)
    9678:	01f00793          	li	a5,31
    967c:	08e7e063          	bltu	a5,a4,96fc <_ftoa+0x6d8>
    9680:	feb44783          	lbu	a5,-21(s0)
    9684:	02078263          	beqz	a5,96a8 <_ftoa+0x684>
    9688:	fec42783          	lw	a5,-20(s0)
    968c:	00178713          	addi	a4,a5,1
    9690:	fee42623          	sw	a4,-20(s0)
    9694:	ff078793          	addi	a5,a5,-16
    9698:	008787b3          	add	a5,a5,s0
    969c:	02d00713          	li	a4,45
    96a0:	fae78c23          	sb	a4,-72(a5)
    96a4:	0580006f          	j	96fc <_ftoa+0x6d8>
    96a8:	00042783          	lw	a5,0(s0)
    96ac:	0047f793          	andi	a5,a5,4
    96b0:	02078263          	beqz	a5,96d4 <_ftoa+0x6b0>
    96b4:	fec42783          	lw	a5,-20(s0)
    96b8:	00178713          	addi	a4,a5,1
    96bc:	fee42623          	sw	a4,-20(s0)
    96c0:	ff078793          	addi	a5,a5,-16
    96c4:	008787b3          	add	a5,a5,s0
    96c8:	02b00713          	li	a4,43
    96cc:	fae78c23          	sb	a4,-72(a5)
    96d0:	02c0006f          	j	96fc <_ftoa+0x6d8>
    96d4:	00042783          	lw	a5,0(s0)
    96d8:	0087f793          	andi	a5,a5,8
    96dc:	02078063          	beqz	a5,96fc <_ftoa+0x6d8>
    96e0:	fec42783          	lw	a5,-20(s0)
    96e4:	00178713          	addi	a4,a5,1
    96e8:	fee42623          	sw	a4,-20(s0)
    96ec:	ff078793          	addi	a5,a5,-16
    96f0:	008787b3          	add	a5,a5,s0
    96f4:	02000713          	li	a4,32
    96f8:	fae78c23          	sb	a4,-72(a5)
    96fc:	fa840713          	addi	a4,s0,-88
    9700:	00042883          	lw	a7,0(s0)
    9704:	f8042803          	lw	a6,-128(s0)
    9708:	fec42783          	lw	a5,-20(s0)
    970c:	f9042683          	lw	a3,-112(s0)
    9710:	f9442603          	lw	a2,-108(s0)
    9714:	f9842583          	lw	a1,-104(s0)
    9718:	f9c42503          	lw	a0,-100(s0)
    971c:	9f0ff0ef          	jal	ra,890c <_out_rev>
    9720:	00050793          	mv	a5,a0
    9724:	00078513          	mv	a0,a5
    9728:	08c12083          	lw	ra,140(sp)
    972c:	08812403          	lw	s0,136(sp)
    9730:	08412483          	lw	s1,132(sp)
    9734:	09010113          	addi	sp,sp,144
    9738:	00008067          	ret

0000973c <_etoa>:
    973c:	f4010113          	addi	sp,sp,-192
    9740:	0a112e23          	sw	ra,188(sp)
    9744:	0a812c23          	sw	s0,184(sp)
    9748:	0a912a23          	sw	s1,180(sp)
    974c:	0b212823          	sw	s2,176(sp)
    9750:	0b312623          	sw	s3,172(sp)
    9754:	0b412423          	sw	s4,168(sp)
    9758:	0b512223          	sw	s5,164(sp)
    975c:	0b612023          	sw	s6,160(sp)
    9760:	09712e23          	sw	s7,156(sp)
    9764:	09812c23          	sw	s8,152(sp)
    9768:	09912a23          	sw	s9,148(sp)
    976c:	09a12823          	sw	s10,144(sp)
    9770:	09b12623          	sw	s11,140(sp)
    9774:	0c010413          	addi	s0,sp,192
    9778:	f6a42e23          	sw	a0,-132(s0)
    977c:	f6b42c23          	sw	a1,-136(s0)
    9780:	f6c42a23          	sw	a2,-140(s0)
    9784:	f6d42823          	sw	a3,-144(s0)
    9788:	f6e42423          	sw	a4,-152(s0)
    978c:	f6f42623          	sw	a5,-148(s0)
    9790:	f7042223          	sw	a6,-156(s0)
    9794:	f7142023          	sw	a7,-160(s0)
    9798:	f6842603          	lw	a2,-152(s0)
    979c:	f6c42683          	lw	a3,-148(s0)
    97a0:	f6842503          	lw	a0,-152(s0)
    97a4:	f6c42583          	lw	a1,-148(s0)
    97a8:	229030ef          	jal	ra,d1d0 <__eqdf2>
    97ac:	00050793          	mv	a5,a0
    97b0:	04079263          	bnez	a5,97f4 <_etoa+0xb8>
    97b4:	000287b7          	lui	a5,0x28
    97b8:	2487a603          	lw	a2,584(a5) # 28248 <pow10.0+0x58>
    97bc:	24c7a683          	lw	a3,588(a5)
    97c0:	f6842503          	lw	a0,-152(s0)
    97c4:	f6c42583          	lw	a1,-148(s0)
    97c8:	295030ef          	jal	ra,d25c <__gedf2>
    97cc:	00050793          	mv	a5,a0
    97d0:	02f04263          	bgtz	a5,97f4 <_etoa+0xb8>
    97d4:	000287b7          	lui	a5,0x28
    97d8:	2407a603          	lw	a2,576(a5) # 28240 <pow10.0+0x50>
    97dc:	2447a683          	lw	a3,580(a5)
    97e0:	f6842503          	lw	a0,-152(s0)
    97e4:	f6c42583          	lw	a1,-148(s0)
    97e8:	359030ef          	jal	ra,d340 <__ledf2>
    97ec:	00050793          	mv	a5,a0
    97f0:	0207dc63          	bgez	a5,9828 <_etoa+0xec>
    97f4:	00042783          	lw	a5,0(s0)
    97f8:	00f12023          	sw	a5,0(sp)
    97fc:	f6042883          	lw	a7,-160(s0)
    9800:	f6442803          	lw	a6,-156(s0)
    9804:	f6842703          	lw	a4,-152(s0)
    9808:	f6c42783          	lw	a5,-148(s0)
    980c:	f7042683          	lw	a3,-144(s0)
    9810:	f7442603          	lw	a2,-140(s0)
    9814:	f7842583          	lw	a1,-136(s0)
    9818:	f7c42503          	lw	a0,-132(s0)
    981c:	809ff0ef          	jal	ra,9024 <_ftoa>
    9820:	00050793          	mv	a5,a0
    9824:	7480006f          	j	9f6c <_etoa+0x830>
    9828:	00100493          	li	s1,1
    982c:	00000613          	li	a2,0
    9830:	00000693          	li	a3,0
    9834:	f6842503          	lw	a0,-152(s0)
    9838:	f6c42583          	lw	a1,-148(s0)
    983c:	305030ef          	jal	ra,d340 <__ledf2>
    9840:	00050793          	mv	a5,a0
    9844:	0007c463          	bltz	a5,984c <_etoa+0x110>
    9848:	00000493          	li	s1,0
    984c:	fa9409a3          	sb	s1,-77(s0)
    9850:	fb344783          	lbu	a5,-77(s0)
    9854:	00078e63          	beqz	a5,9870 <_etoa+0x134>
    9858:	f6842c03          	lw	s8,-152(s0)
    985c:	f6c42703          	lw	a4,-148(s0)
    9860:	800007b7          	lui	a5,0x80000
    9864:	00f74cb3          	xor	s9,a4,a5
    9868:	f7842423          	sw	s8,-152(s0)
    986c:	f7942623          	sw	s9,-148(s0)
    9870:	00042783          	lw	a5,0(s0)
    9874:	4007f793          	andi	a5,a5,1024
    9878:	00079663          	bnez	a5,9884 <_etoa+0x148>
    987c:	00600793          	li	a5,6
    9880:	f6f42223          	sw	a5,-156(s0)
    9884:	f6842703          	lw	a4,-152(s0)
    9888:	f6c42783          	lw	a5,-148(s0)
    988c:	f8e42423          	sw	a4,-120(s0)
    9890:	f8f42623          	sw	a5,-116(s0)
    9894:	f8842703          	lw	a4,-120(s0)
    9898:	f8c42783          	lw	a5,-116(s0)
    989c:	0147d793          	srli	a5,a5,0x14
    98a0:	f4f42c23          	sw	a5,-168(s0)
    98a4:	f4042e23          	sw	zero,-164(s0)
    98a8:	f5842783          	lw	a5,-168(s0)
    98ac:	7ff7f793          	andi	a5,a5,2047
    98b0:	c0178793          	addi	a5,a5,-1023 # 7ffffc01 <__heap_end+0x7ffb7c01>
    98b4:	faf42623          	sw	a5,-84(s0)
    98b8:	f8842703          	lw	a4,-120(s0)
    98bc:	f8c42783          	lw	a5,-116(s0)
    98c0:	fff77913          	andi	s2,a4,-1
    98c4:	001006b7          	lui	a3,0x100
    98c8:	fff68693          	addi	a3,a3,-1 # fffff <__heap_end+0xb7fff>
    98cc:	00d7f9b3          	and	s3,a5,a3
    98d0:	00096b13          	ori	s6,s2,0
    98d4:	3ff007b7          	lui	a5,0x3ff00
    98d8:	00f9ebb3          	or	s7,s3,a5
    98dc:	f9642423          	sw	s6,-120(s0)
    98e0:	f9742623          	sw	s7,-116(s0)
    98e4:	fac42503          	lw	a0,-84(s0)
    98e8:	235040ef          	jal	ra,e31c <__floatsidf>
    98ec:	00050713          	mv	a4,a0
    98f0:	00058793          	mv	a5,a1
    98f4:	000286b7          	lui	a3,0x28
    98f8:	2686a603          	lw	a2,616(a3) # 28268 <pow10.0+0x78>
    98fc:	26c6a683          	lw	a3,620(a3)
    9900:	00070513          	mv	a0,a4
    9904:	00078593          	mv	a1,a5
    9908:	31d030ef          	jal	ra,d424 <__muldf3>
    990c:	00050713          	mv	a4,a0
    9910:	00058793          	mv	a5,a1
    9914:	00070513          	mv	a0,a4
    9918:	00078593          	mv	a1,a5
    991c:	000287b7          	lui	a5,0x28
    9920:	2707a603          	lw	a2,624(a5) # 28270 <pow10.0+0x80>
    9924:	2747a683          	lw	a3,628(a5)
    9928:	1f1020ef          	jal	ra,c318 <__adddf3>
    992c:	00050713          	mv	a4,a0
    9930:	00058793          	mv	a5,a1
    9934:	00070913          	mv	s2,a4
    9938:	00078993          	mv	s3,a5
    993c:	f8842703          	lw	a4,-120(s0)
    9940:	f8c42783          	lw	a5,-116(s0)
    9944:	000286b7          	lui	a3,0x28
    9948:	2786a603          	lw	a2,632(a3) # 28278 <pow10.0+0x88>
    994c:	27c6a683          	lw	a3,636(a3)
    9950:	00070513          	mv	a0,a4
    9954:	00078593          	mv	a1,a5
    9958:	0d8040ef          	jal	ra,da30 <__subdf3>
    995c:	00050713          	mv	a4,a0
    9960:	00058793          	mv	a5,a1
    9964:	00070513          	mv	a0,a4
    9968:	00078593          	mv	a1,a5
    996c:	000287b7          	lui	a5,0x28
    9970:	2807a603          	lw	a2,640(a5) # 28280 <pow10.0+0x90>
    9974:	2847a683          	lw	a3,644(a5)
    9978:	2ad030ef          	jal	ra,d424 <__muldf3>
    997c:	00050713          	mv	a4,a0
    9980:	00058793          	mv	a5,a1
    9984:	00070613          	mv	a2,a4
    9988:	00078693          	mv	a3,a5
    998c:	00090513          	mv	a0,s2
    9990:	00098593          	mv	a1,s3
    9994:	185020ef          	jal	ra,c318 <__adddf3>
    9998:	00050713          	mv	a4,a0
    999c:	00058793          	mv	a5,a1
    99a0:	00070513          	mv	a0,a4
    99a4:	00078593          	mv	a1,a5
    99a8:	079040ef          	jal	ra,e220 <__fixdfsi>
    99ac:	00050793          	mv	a5,a0
    99b0:	faf42e23          	sw	a5,-68(s0)
    99b4:	fbc42503          	lw	a0,-68(s0)
    99b8:	165040ef          	jal	ra,e31c <__floatsidf>
    99bc:	00050713          	mv	a4,a0
    99c0:	00058793          	mv	a5,a1
    99c4:	000286b7          	lui	a3,0x28
    99c8:	2886a603          	lw	a2,648(a3) # 28288 <pow10.0+0x98>
    99cc:	28c6a683          	lw	a3,652(a3)
    99d0:	00070513          	mv	a0,a4
    99d4:	00078593          	mv	a1,a5
    99d8:	24d030ef          	jal	ra,d424 <__muldf3>
    99dc:	00050713          	mv	a4,a0
    99e0:	00058793          	mv	a5,a1
    99e4:	00070513          	mv	a0,a4
    99e8:	00078593          	mv	a1,a5
    99ec:	000287b7          	lui	a5,0x28
    99f0:	2607a603          	lw	a2,608(a5) # 28260 <pow10.0+0x70>
    99f4:	2647a683          	lw	a3,612(a5)
    99f8:	121020ef          	jal	ra,c318 <__adddf3>
    99fc:	00050713          	mv	a4,a0
    9a00:	00058793          	mv	a5,a1
    9a04:	00070513          	mv	a0,a4
    9a08:	00078593          	mv	a1,a5
    9a0c:	015040ef          	jal	ra,e220 <__fixdfsi>
    9a10:	00050793          	mv	a5,a0
    9a14:	faf42623          	sw	a5,-84(s0)
    9a18:	fbc42503          	lw	a0,-68(s0)
    9a1c:	101040ef          	jal	ra,e31c <__floatsidf>
    9a20:	00050713          	mv	a4,a0
    9a24:	00058793          	mv	a5,a1
    9a28:	000286b7          	lui	a3,0x28
    9a2c:	2906a603          	lw	a2,656(a3) # 28290 <pow10.0+0xa0>
    9a30:	2946a683          	lw	a3,660(a3)
    9a34:	00070513          	mv	a0,a4
    9a38:	00078593          	mv	a1,a5
    9a3c:	1e9030ef          	jal	ra,d424 <__muldf3>
    9a40:	00050713          	mv	a4,a0
    9a44:	00058793          	mv	a5,a1
    9a48:	00070913          	mv	s2,a4
    9a4c:	00078993          	mv	s3,a5
    9a50:	fac42503          	lw	a0,-84(s0)
    9a54:	0c9040ef          	jal	ra,e31c <__floatsidf>
    9a58:	00050713          	mv	a4,a0
    9a5c:	00058793          	mv	a5,a1
    9a60:	000286b7          	lui	a3,0x28
    9a64:	2986a603          	lw	a2,664(a3) # 28298 <pow10.0+0xa8>
    9a68:	29c6a683          	lw	a3,668(a3)
    9a6c:	00070513          	mv	a0,a4
    9a70:	00078593          	mv	a1,a5
    9a74:	1b1030ef          	jal	ra,d424 <__muldf3>
    9a78:	00050713          	mv	a4,a0
    9a7c:	00058793          	mv	a5,a1
    9a80:	00070613          	mv	a2,a4
    9a84:	00078693          	mv	a3,a5
    9a88:	00090513          	mv	a0,s2
    9a8c:	00098593          	mv	a1,s3
    9a90:	7a1030ef          	jal	ra,da30 <__subdf3>
    9a94:	00050713          	mv	a4,a0
    9a98:	00058793          	mv	a5,a1
    9a9c:	fae42023          	sw	a4,-96(s0)
    9aa0:	faf42223          	sw	a5,-92(s0)
    9aa4:	fa042603          	lw	a2,-96(s0)
    9aa8:	fa442683          	lw	a3,-92(s0)
    9aac:	fa042503          	lw	a0,-96(s0)
    9ab0:	fa442583          	lw	a1,-92(s0)
    9ab4:	171030ef          	jal	ra,d424 <__muldf3>
    9ab8:	00050713          	mv	a4,a0
    9abc:	00058793          	mv	a5,a1
    9ac0:	f8e42c23          	sw	a4,-104(s0)
    9ac4:	f8f42e23          	sw	a5,-100(s0)
    9ac8:	fac42783          	lw	a5,-84(s0)
    9acc:	3ff78793          	addi	a5,a5,1023
    9ad0:	f4f42823          	sw	a5,-176(s0)
    9ad4:	41f7d793          	srai	a5,a5,0x1f
    9ad8:	f4f42a23          	sw	a5,-172(s0)
    9adc:	f5042783          	lw	a5,-176(s0)
    9ae0:	01479d93          	slli	s11,a5,0x14
    9ae4:	00000d13          	li	s10,0
    9ae8:	f9a42423          	sw	s10,-120(s0)
    9aec:	f9b42623          	sw	s11,-116(s0)
    9af0:	f8842903          	lw	s2,-120(s0)
    9af4:	f8c42983          	lw	s3,-116(s0)
    9af8:	fa042703          	lw	a4,-96(s0)
    9afc:	fa442783          	lw	a5,-92(s0)
    9b00:	00070613          	mv	a2,a4
    9b04:	00078693          	mv	a3,a5
    9b08:	00070513          	mv	a0,a4
    9b0c:	00078593          	mv	a1,a5
    9b10:	009020ef          	jal	ra,c318 <__adddf3>
    9b14:	00050713          	mv	a4,a0
    9b18:	00058793          	mv	a5,a1
    9b1c:	00070b13          	mv	s6,a4
    9b20:	00078b93          	mv	s7,a5
    9b24:	000287b7          	lui	a5,0x28
    9b28:	fa042603          	lw	a2,-96(s0)
    9b2c:	fa442683          	lw	a3,-92(s0)
    9b30:	2a07a503          	lw	a0,672(a5) # 282a0 <pow10.0+0xb0>
    9b34:	2a47a583          	lw	a1,676(a5)
    9b38:	6f9030ef          	jal	ra,da30 <__subdf3>
    9b3c:	00050713          	mv	a4,a0
    9b40:	00058793          	mv	a5,a1
    9b44:	00070c13          	mv	s8,a4
    9b48:	00078c93          	mv	s9,a5
    9b4c:	000287b7          	lui	a5,0x28
    9b50:	2a87a603          	lw	a2,680(a5) # 282a8 <pow10.0+0xb8>
    9b54:	2ac7a683          	lw	a3,684(a5)
    9b58:	f9842503          	lw	a0,-104(s0)
    9b5c:	f9c42583          	lw	a1,-100(s0)
    9b60:	795020ef          	jal	ra,caf4 <__divdf3>
    9b64:	00050713          	mv	a4,a0
    9b68:	00058793          	mv	a5,a1
    9b6c:	00070513          	mv	a0,a4
    9b70:	00078593          	mv	a1,a5
    9b74:	000287b7          	lui	a5,0x28
    9b78:	2b07a603          	lw	a2,688(a5) # 282b0 <pow10.0+0xc0>
    9b7c:	2b47a683          	lw	a3,692(a5)
    9b80:	798020ef          	jal	ra,c318 <__adddf3>
    9b84:	00050713          	mv	a4,a0
    9b88:	00058793          	mv	a5,a1
    9b8c:	00070613          	mv	a2,a4
    9b90:	00078693          	mv	a3,a5
    9b94:	f9842503          	lw	a0,-104(s0)
    9b98:	f9c42583          	lw	a1,-100(s0)
    9b9c:	759020ef          	jal	ra,caf4 <__divdf3>
    9ba0:	00050713          	mv	a4,a0
    9ba4:	00058793          	mv	a5,a1
    9ba8:	00070513          	mv	a0,a4
    9bac:	00078593          	mv	a1,a5
    9bb0:	000287b7          	lui	a5,0x28
    9bb4:	2b87a603          	lw	a2,696(a5) # 282b8 <pow10.0+0xc8>
    9bb8:	2bc7a683          	lw	a3,700(a5)
    9bbc:	75c020ef          	jal	ra,c318 <__adddf3>
    9bc0:	00050713          	mv	a4,a0
    9bc4:	00058793          	mv	a5,a1
    9bc8:	00070613          	mv	a2,a4
    9bcc:	00078693          	mv	a3,a5
    9bd0:	f9842503          	lw	a0,-104(s0)
    9bd4:	f9c42583          	lw	a1,-100(s0)
    9bd8:	71d020ef          	jal	ra,caf4 <__divdf3>
    9bdc:	00050713          	mv	a4,a0
    9be0:	00058793          	mv	a5,a1
    9be4:	00070613          	mv	a2,a4
    9be8:	00078693          	mv	a3,a5
    9bec:	000c0513          	mv	a0,s8
    9bf0:	000c8593          	mv	a1,s9
    9bf4:	724020ef          	jal	ra,c318 <__adddf3>
    9bf8:	00050713          	mv	a4,a0
    9bfc:	00058793          	mv	a5,a1
    9c00:	00070613          	mv	a2,a4
    9c04:	00078693          	mv	a3,a5
    9c08:	000b0513          	mv	a0,s6
    9c0c:	000b8593          	mv	a1,s7
    9c10:	6e5020ef          	jal	ra,caf4 <__divdf3>
    9c14:	00050713          	mv	a4,a0
    9c18:	00058793          	mv	a5,a1
    9c1c:	00070513          	mv	a0,a4
    9c20:	00078593          	mv	a1,a5
    9c24:	000287b7          	lui	a5,0x28
    9c28:	2c07a603          	lw	a2,704(a5) # 282c0 <pow10.0+0xd0>
    9c2c:	2c47a683          	lw	a3,708(a5)
    9c30:	6e8020ef          	jal	ra,c318 <__adddf3>
    9c34:	00050713          	mv	a4,a0
    9c38:	00058793          	mv	a5,a1
    9c3c:	00070613          	mv	a2,a4
    9c40:	00078693          	mv	a3,a5
    9c44:	00090513          	mv	a0,s2
    9c48:	00098593          	mv	a1,s3
    9c4c:	7d8030ef          	jal	ra,d424 <__muldf3>
    9c50:	00050713          	mv	a4,a0
    9c54:	00058793          	mv	a5,a1
    9c58:	f8e42423          	sw	a4,-120(s0)
    9c5c:	f8f42623          	sw	a5,-116(s0)
    9c60:	f8842703          	lw	a4,-120(s0)
    9c64:	f8c42783          	lw	a5,-116(s0)
    9c68:	00070613          	mv	a2,a4
    9c6c:	00078693          	mv	a3,a5
    9c70:	f6842503          	lw	a0,-152(s0)
    9c74:	f6c42583          	lw	a1,-148(s0)
    9c78:	6c8030ef          	jal	ra,d340 <__ledf2>
    9c7c:	00050793          	mv	a5,a0
    9c80:	0407d063          	bgez	a5,9cc0 <_etoa+0x584>
    9c84:	fbc42783          	lw	a5,-68(s0)
    9c88:	fff78793          	addi	a5,a5,-1
    9c8c:	faf42e23          	sw	a5,-68(s0)
    9c90:	f8842703          	lw	a4,-120(s0)
    9c94:	f8c42783          	lw	a5,-116(s0)
    9c98:	000286b7          	lui	a3,0x28
    9c9c:	2b06a603          	lw	a2,688(a3) # 282b0 <pow10.0+0xc0>
    9ca0:	2b46a683          	lw	a3,692(a3)
    9ca4:	00070513          	mv	a0,a4
    9ca8:	00078593          	mv	a1,a5
    9cac:	649020ef          	jal	ra,caf4 <__divdf3>
    9cb0:	00050713          	mv	a4,a0
    9cb4:	00058793          	mv	a5,a1
    9cb8:	f8e42423          	sw	a4,-120(s0)
    9cbc:	f8f42623          	sw	a5,-116(s0)
    9cc0:	fbc42703          	lw	a4,-68(s0)
    9cc4:	06300793          	li	a5,99
    9cc8:	00e7cc63          	blt	a5,a4,9ce0 <_etoa+0x5a4>
    9ccc:	fbc42703          	lw	a4,-68(s0)
    9cd0:	f9d00793          	li	a5,-99
    9cd4:	00f74663          	blt	a4,a5,9ce0 <_etoa+0x5a4>
    9cd8:	00400793          	li	a5,4
    9cdc:	0080006f          	j	9ce4 <_etoa+0x5a8>
    9ce0:	00500793          	li	a5,5
    9ce4:	faf42c23          	sw	a5,-72(s0)
    9ce8:	00042703          	lw	a4,0(s0)
    9cec:	000017b7          	lui	a5,0x1
    9cf0:	80078793          	addi	a5,a5,-2048 # 800 <_isr_vector-0x7800>
    9cf4:	00f777b3          	and	a5,a4,a5
    9cf8:	0a078263          	beqz	a5,9d9c <_etoa+0x660>
    9cfc:	000287b7          	lui	a5,0x28
    9d00:	2c87a603          	lw	a2,712(a5) # 282c8 <pow10.0+0xd8>
    9d04:	2cc7a683          	lw	a3,716(a5)
    9d08:	f6842503          	lw	a0,-152(s0)
    9d0c:	f6c42583          	lw	a1,-148(s0)
    9d10:	54c030ef          	jal	ra,d25c <__gedf2>
    9d14:	00050793          	mv	a5,a0
    9d18:	0607c263          	bltz	a5,9d7c <_etoa+0x640>
    9d1c:	000287b7          	lui	a5,0x28
    9d20:	2d07a603          	lw	a2,720(a5) # 282d0 <pow10.0+0xe0>
    9d24:	2d47a683          	lw	a3,724(a5)
    9d28:	f6842503          	lw	a0,-152(s0)
    9d2c:	f6c42583          	lw	a1,-148(s0)
    9d30:	610030ef          	jal	ra,d340 <__ledf2>
    9d34:	00050793          	mv	a5,a0
    9d38:	0407d263          	bgez	a5,9d7c <_etoa+0x640>
    9d3c:	f6442783          	lw	a5,-156(s0)
    9d40:	fbc42703          	lw	a4,-68(s0)
    9d44:	00f75e63          	bge	a4,a5,9d60 <_etoa+0x624>
    9d48:	f6442703          	lw	a4,-156(s0)
    9d4c:	fbc42783          	lw	a5,-68(s0)
    9d50:	40f707b3          	sub	a5,a4,a5
    9d54:	fff78793          	addi	a5,a5,-1
    9d58:	f6f42223          	sw	a5,-156(s0)
    9d5c:	0080006f          	j	9d64 <_etoa+0x628>
    9d60:	f6042223          	sw	zero,-156(s0)
    9d64:	00042783          	lw	a5,0(s0)
    9d68:	4007e793          	ori	a5,a5,1024
    9d6c:	00f42023          	sw	a5,0(s0)
    9d70:	fa042c23          	sw	zero,-72(s0)
    9d74:	fa042e23          	sw	zero,-68(s0)
    9d78:	0240006f          	j	9d9c <_etoa+0x660>
    9d7c:	f6442783          	lw	a5,-156(s0)
    9d80:	00078e63          	beqz	a5,9d9c <_etoa+0x660>
    9d84:	00042783          	lw	a5,0(s0)
    9d88:	4007f793          	andi	a5,a5,1024
    9d8c:	00078863          	beqz	a5,9d9c <_etoa+0x660>
    9d90:	f6442783          	lw	a5,-156(s0)
    9d94:	fff78793          	addi	a5,a5,-1
    9d98:	f6f42223          	sw	a5,-156(s0)
    9d9c:	f6042783          	lw	a5,-160(s0)
    9da0:	faf42a23          	sw	a5,-76(s0)
    9da4:	f6042703          	lw	a4,-160(s0)
    9da8:	fb842783          	lw	a5,-72(s0)
    9dac:	00e7fc63          	bgeu	a5,a4,9dc4 <_etoa+0x688>
    9db0:	fb442703          	lw	a4,-76(s0)
    9db4:	fb842783          	lw	a5,-72(s0)
    9db8:	40f707b3          	sub	a5,a4,a5
    9dbc:	faf42a23          	sw	a5,-76(s0)
    9dc0:	0080006f          	j	9dc8 <_etoa+0x68c>
    9dc4:	fa042a23          	sw	zero,-76(s0)
    9dc8:	00042783          	lw	a5,0(s0)
    9dcc:	0027f793          	andi	a5,a5,2
    9dd0:	00078863          	beqz	a5,9de0 <_etoa+0x6a4>
    9dd4:	fb842783          	lw	a5,-72(s0)
    9dd8:	00078463          	beqz	a5,9de0 <_etoa+0x6a4>
    9ddc:	fa042a23          	sw	zero,-76(s0)
    9de0:	fbc42783          	lw	a5,-68(s0)
    9de4:	02078863          	beqz	a5,9e14 <_etoa+0x6d8>
    9de8:	f8842703          	lw	a4,-120(s0)
    9dec:	f8c42783          	lw	a5,-116(s0)
    9df0:	00070613          	mv	a2,a4
    9df4:	00078693          	mv	a3,a5
    9df8:	f6842503          	lw	a0,-152(s0)
    9dfc:	f6c42583          	lw	a1,-148(s0)
    9e00:	4f5020ef          	jal	ra,caf4 <__divdf3>
    9e04:	00050713          	mv	a4,a0
    9e08:	00058793          	mv	a5,a1
    9e0c:	f6e42423          	sw	a4,-152(s0)
    9e10:	f6f42623          	sw	a5,-148(s0)
    9e14:	f7442783          	lw	a5,-140(s0)
    9e18:	f8f42a23          	sw	a5,-108(s0)
    9e1c:	fb344783          	lbu	a5,-77(s0)
    9e20:	00078c63          	beqz	a5,9e38 <_etoa+0x6fc>
    9e24:	f6842a03          	lw	s4,-152(s0)
    9e28:	f6c42703          	lw	a4,-148(s0)
    9e2c:	800007b7          	lui	a5,0x80000
    9e30:	00f74ab3          	xor	s5,a4,a5
    9e34:	00c0006f          	j	9e40 <_etoa+0x704>
    9e38:	f6842a03          	lw	s4,-152(s0)
    9e3c:	f6c42a83          	lw	s5,-148(s0)
    9e40:	00042703          	lw	a4,0(s0)
    9e44:	fffff7b7          	lui	a5,0xfffff
    9e48:	7ff78793          	addi	a5,a5,2047 # fffff7ff <__heap_end+0xfffb77ff>
    9e4c:	00f777b3          	and	a5,a4,a5
    9e50:	00f12023          	sw	a5,0(sp)
    9e54:	fb442883          	lw	a7,-76(s0)
    9e58:	f6442803          	lw	a6,-156(s0)
    9e5c:	000a0713          	mv	a4,s4
    9e60:	000a8793          	mv	a5,s5
    9e64:	f7042683          	lw	a3,-144(s0)
    9e68:	f7442603          	lw	a2,-140(s0)
    9e6c:	f7842583          	lw	a1,-136(s0)
    9e70:	f7c42503          	lw	a0,-132(s0)
    9e74:	9b0ff0ef          	jal	ra,9024 <_ftoa>
    9e78:	f6a42a23          	sw	a0,-140(s0)
    9e7c:	fb842783          	lw	a5,-72(s0)
    9e80:	0e078463          	beqz	a5,9f68 <_etoa+0x82c>
    9e84:	00042783          	lw	a5,0(s0)
    9e88:	0207f793          	andi	a5,a5,32
    9e8c:	00078663          	beqz	a5,9e98 <_etoa+0x75c>
    9e90:	04500793          	li	a5,69
    9e94:	0080006f          	j	9e9c <_etoa+0x760>
    9e98:	06500793          	li	a5,101
    9e9c:	f7442703          	lw	a4,-140(s0)
    9ea0:	00170693          	addi	a3,a4,1
    9ea4:	f6d42a23          	sw	a3,-140(s0)
    9ea8:	f7c42803          	lw	a6,-132(s0)
    9eac:	f7042683          	lw	a3,-144(s0)
    9eb0:	00070613          	mv	a2,a4
    9eb4:	f7842583          	lw	a1,-136(s0)
    9eb8:	00078513          	mv	a0,a5
    9ebc:	000800e7          	jalr	a6
    9ec0:	fbc42783          	lw	a5,-68(s0)
    9ec4:	41f7d713          	srai	a4,a5,0x1f
    9ec8:	fbc42783          	lw	a5,-68(s0)
    9ecc:	00f747b3          	xor	a5,a4,a5
    9ed0:	40e787b3          	sub	a5,a5,a4
    9ed4:	00078613          	mv	a2,a5
    9ed8:	fbc42783          	lw	a5,-68(s0)
    9edc:	01f7d793          	srli	a5,a5,0x1f
    9ee0:	0ff7f693          	zext.b	a3,a5
    9ee4:	fb842783          	lw	a5,-72(s0)
    9ee8:	fff78793          	addi	a5,a5,-1
    9eec:	00500713          	li	a4,5
    9ef0:	00e12223          	sw	a4,4(sp)
    9ef4:	00f12023          	sw	a5,0(sp)
    9ef8:	00000893          	li	a7,0
    9efc:	00a00813          	li	a6,10
    9f00:	00068793          	mv	a5,a3
    9f04:	00060713          	mv	a4,a2
    9f08:	f7042683          	lw	a3,-144(s0)
    9f0c:	f7442603          	lw	a2,-140(s0)
    9f10:	f7842583          	lw	a1,-136(s0)
    9f14:	f7c42503          	lw	a0,-132(s0)
    9f18:	e31fe0ef          	jal	ra,8d48 <_ntoa_long>
    9f1c:	f6a42a23          	sw	a0,-140(s0)
    9f20:	00042783          	lw	a5,0(s0)
    9f24:	0027f793          	andi	a5,a5,2
    9f28:	04078063          	beqz	a5,9f68 <_etoa+0x82c>
    9f2c:	0280006f          	j	9f54 <_etoa+0x818>
    9f30:	f7442783          	lw	a5,-140(s0)
    9f34:	00178713          	addi	a4,a5,1
    9f38:	f6e42a23          	sw	a4,-140(s0)
    9f3c:	f7c42703          	lw	a4,-132(s0)
    9f40:	f7042683          	lw	a3,-144(s0)
    9f44:	00078613          	mv	a2,a5
    9f48:	f7842583          	lw	a1,-136(s0)
    9f4c:	02000513          	li	a0,32
    9f50:	000700e7          	jalr	a4
    9f54:	f7442703          	lw	a4,-140(s0)
    9f58:	f9442783          	lw	a5,-108(s0)
    9f5c:	40f707b3          	sub	a5,a4,a5
    9f60:	f6042703          	lw	a4,-160(s0)
    9f64:	fce7e6e3          	bltu	a5,a4,9f30 <_etoa+0x7f4>
    9f68:	f7442783          	lw	a5,-140(s0)
    9f6c:	00078513          	mv	a0,a5
    9f70:	0bc12083          	lw	ra,188(sp)
    9f74:	0b812403          	lw	s0,184(sp)
    9f78:	0b412483          	lw	s1,180(sp)
    9f7c:	0b012903          	lw	s2,176(sp)
    9f80:	0ac12983          	lw	s3,172(sp)
    9f84:	0a812a03          	lw	s4,168(sp)
    9f88:	0a412a83          	lw	s5,164(sp)
    9f8c:	0a012b03          	lw	s6,160(sp)
    9f90:	09c12b83          	lw	s7,156(sp)
    9f94:	09812c03          	lw	s8,152(sp)
    9f98:	09412c83          	lw	s9,148(sp)
    9f9c:	09012d03          	lw	s10,144(sp)
    9fa0:	08c12d83          	lw	s11,140(sp)
    9fa4:	0c010113          	addi	sp,sp,192
    9fa8:	00008067          	ret

00009fac <_vsnprintf>:
    9fac:	f5010113          	addi	sp,sp,-176
    9fb0:	0a112623          	sw	ra,172(sp)
    9fb4:	0a812423          	sw	s0,168(sp)
    9fb8:	0b212223          	sw	s2,164(sp)
    9fbc:	0b312023          	sw	s3,160(sp)
    9fc0:	09412e23          	sw	s4,156(sp)
    9fc4:	09512c23          	sw	s5,152(sp)
    9fc8:	09612a23          	sw	s6,148(sp)
    9fcc:	09712823          	sw	s7,144(sp)
    9fd0:	09812623          	sw	s8,140(sp)
    9fd4:	09912423          	sw	s9,136(sp)
    9fd8:	09a12223          	sw	s10,132(sp)
    9fdc:	09b12023          	sw	s11,128(sp)
    9fe0:	0b010413          	addi	s0,sp,176
    9fe4:	f6a42e23          	sw	a0,-132(s0)
    9fe8:	f6b42c23          	sw	a1,-136(s0)
    9fec:	f6c42a23          	sw	a2,-140(s0)
    9ff0:	f6d42823          	sw	a3,-144(s0)
    9ff4:	f6e42623          	sw	a4,-148(s0)
    9ff8:	fa042e23          	sw	zero,-68(s0)
    9ffc:	f7842783          	lw	a5,-136(s0)
    a000:	540798e3          	bnez	a5,ad50 <_vsnprintf+0xda4>
    a004:	000087b7          	lui	a5,0x8
    a008:	6f078793          	addi	a5,a5,1776 # 86f0 <_out_null>
    a00c:	f6f42e23          	sw	a5,-132(s0)
    a010:	5410006f          	j	ad50 <_vsnprintf+0xda4>
    a014:	f7042783          	lw	a5,-144(s0)
    a018:	0007c703          	lbu	a4,0(a5)
    a01c:	02500793          	li	a5,37
    a020:	02f70e63          	beq	a4,a5,a05c <_vsnprintf+0xb0>
    a024:	f7042783          	lw	a5,-144(s0)
    a028:	0007c503          	lbu	a0,0(a5)
    a02c:	fbc42783          	lw	a5,-68(s0)
    a030:	00178713          	addi	a4,a5,1
    a034:	fae42e23          	sw	a4,-68(s0)
    a038:	f7c42703          	lw	a4,-132(s0)
    a03c:	f7442683          	lw	a3,-140(s0)
    a040:	00078613          	mv	a2,a5
    a044:	f7842583          	lw	a1,-136(s0)
    a048:	000700e7          	jalr	a4
    a04c:	f7042783          	lw	a5,-144(s0)
    a050:	00178793          	addi	a5,a5,1
    a054:	f6f42823          	sw	a5,-144(s0)
    a058:	4f90006f          	j	ad50 <_vsnprintf+0xda4>
    a05c:	f7042783          	lw	a5,-144(s0)
    a060:	00178793          	addi	a5,a5,1
    a064:	f6f42823          	sw	a5,-144(s0)
    a068:	fc042623          	sw	zero,-52(s0)
    a06c:	f7042783          	lw	a5,-144(s0)
    a070:	0007c783          	lbu	a5,0(a5)
    a074:	fe078793          	addi	a5,a5,-32
    a078:	01000713          	li	a4,16
    a07c:	0cf76863          	bltu	a4,a5,a14c <_vsnprintf+0x1a0>
    a080:	00279713          	slli	a4,a5,0x2
    a084:	000287b7          	lui	a5,0x28
    a088:	05078793          	addi	a5,a5,80 # 28050 <__data_address+0x50>
    a08c:	00f707b3          	add	a5,a4,a5
    a090:	0007a783          	lw	a5,0(a5)
    a094:	00078067          	jr	a5
    a098:	fcc42783          	lw	a5,-52(s0)
    a09c:	0017e793          	ori	a5,a5,1
    a0a0:	fcf42623          	sw	a5,-52(s0)
    a0a4:	f7042783          	lw	a5,-144(s0)
    a0a8:	00178793          	addi	a5,a5,1
    a0ac:	f6f42823          	sw	a5,-144(s0)
    a0b0:	00100793          	li	a5,1
    a0b4:	fcf42023          	sw	a5,-64(s0)
    a0b8:	09c0006f          	j	a154 <_vsnprintf+0x1a8>
    a0bc:	fcc42783          	lw	a5,-52(s0)
    a0c0:	0027e793          	ori	a5,a5,2
    a0c4:	fcf42623          	sw	a5,-52(s0)
    a0c8:	f7042783          	lw	a5,-144(s0)
    a0cc:	00178793          	addi	a5,a5,1
    a0d0:	f6f42823          	sw	a5,-144(s0)
    a0d4:	00100793          	li	a5,1
    a0d8:	fcf42023          	sw	a5,-64(s0)
    a0dc:	0780006f          	j	a154 <_vsnprintf+0x1a8>
    a0e0:	fcc42783          	lw	a5,-52(s0)
    a0e4:	0047e793          	ori	a5,a5,4
    a0e8:	fcf42623          	sw	a5,-52(s0)
    a0ec:	f7042783          	lw	a5,-144(s0)
    a0f0:	00178793          	addi	a5,a5,1
    a0f4:	f6f42823          	sw	a5,-144(s0)
    a0f8:	00100793          	li	a5,1
    a0fc:	fcf42023          	sw	a5,-64(s0)
    a100:	0540006f          	j	a154 <_vsnprintf+0x1a8>
    a104:	fcc42783          	lw	a5,-52(s0)
    a108:	0087e793          	ori	a5,a5,8
    a10c:	fcf42623          	sw	a5,-52(s0)
    a110:	f7042783          	lw	a5,-144(s0)
    a114:	00178793          	addi	a5,a5,1
    a118:	f6f42823          	sw	a5,-144(s0)
    a11c:	00100793          	li	a5,1
    a120:	fcf42023          	sw	a5,-64(s0)
    a124:	0300006f          	j	a154 <_vsnprintf+0x1a8>
    a128:	fcc42783          	lw	a5,-52(s0)
    a12c:	0107e793          	ori	a5,a5,16
    a130:	fcf42623          	sw	a5,-52(s0)
    a134:	f7042783          	lw	a5,-144(s0)
    a138:	00178793          	addi	a5,a5,1
    a13c:	f6f42823          	sw	a5,-144(s0)
    a140:	00100793          	li	a5,1
    a144:	fcf42023          	sw	a5,-64(s0)
    a148:	00c0006f          	j	a154 <_vsnprintf+0x1a8>
    a14c:	fc042023          	sw	zero,-64(s0)
    a150:	00000013          	nop
    a154:	fc042783          	lw	a5,-64(s0)
    a158:	f0079ae3          	bnez	a5,a06c <_vsnprintf+0xc0>
    a15c:	fc042423          	sw	zero,-56(s0)
    a160:	f7042783          	lw	a5,-144(s0)
    a164:	0007c783          	lbu	a5,0(a5)
    a168:	00078513          	mv	a0,a5
    a16c:	ec4fe0ef          	jal	ra,8830 <_is_digit>
    a170:	00050793          	mv	a5,a0
    a174:	00078c63          	beqz	a5,a18c <_vsnprintf+0x1e0>
    a178:	f7040793          	addi	a5,s0,-144
    a17c:	00078513          	mv	a0,a5
    a180:	f00fe0ef          	jal	ra,8880 <_atoi>
    a184:	fca42423          	sw	a0,-56(s0)
    a188:	0600006f          	j	a1e8 <_vsnprintf+0x23c>
    a18c:	f7042783          	lw	a5,-144(s0)
    a190:	0007c703          	lbu	a4,0(a5)
    a194:	02a00793          	li	a5,42
    a198:	04f71863          	bne	a4,a5,a1e8 <_vsnprintf+0x23c>
    a19c:	f6c42783          	lw	a5,-148(s0)
    a1a0:	00478713          	addi	a4,a5,4
    a1a4:	f6e42623          	sw	a4,-148(s0)
    a1a8:	0007a783          	lw	a5,0(a5)
    a1ac:	faf42423          	sw	a5,-88(s0)
    a1b0:	fa842783          	lw	a5,-88(s0)
    a1b4:	0207d063          	bgez	a5,a1d4 <_vsnprintf+0x228>
    a1b8:	fcc42783          	lw	a5,-52(s0)
    a1bc:	0027e793          	ori	a5,a5,2
    a1c0:	fcf42623          	sw	a5,-52(s0)
    a1c4:	fa842783          	lw	a5,-88(s0)
    a1c8:	40f007b3          	neg	a5,a5
    a1cc:	fcf42423          	sw	a5,-56(s0)
    a1d0:	00c0006f          	j	a1dc <_vsnprintf+0x230>
    a1d4:	fa842783          	lw	a5,-88(s0)
    a1d8:	fcf42423          	sw	a5,-56(s0)
    a1dc:	f7042783          	lw	a5,-144(s0)
    a1e0:	00178793          	addi	a5,a5,1
    a1e4:	f6f42823          	sw	a5,-144(s0)
    a1e8:	fc042223          	sw	zero,-60(s0)
    a1ec:	f7042783          	lw	a5,-144(s0)
    a1f0:	0007c703          	lbu	a4,0(a5)
    a1f4:	02e00793          	li	a5,46
    a1f8:	08f71463          	bne	a4,a5,a280 <_vsnprintf+0x2d4>
    a1fc:	fcc42783          	lw	a5,-52(s0)
    a200:	4007e793          	ori	a5,a5,1024
    a204:	fcf42623          	sw	a5,-52(s0)
    a208:	f7042783          	lw	a5,-144(s0)
    a20c:	00178793          	addi	a5,a5,1
    a210:	f6f42823          	sw	a5,-144(s0)
    a214:	f7042783          	lw	a5,-144(s0)
    a218:	0007c783          	lbu	a5,0(a5)
    a21c:	00078513          	mv	a0,a5
    a220:	e10fe0ef          	jal	ra,8830 <_is_digit>
    a224:	00050793          	mv	a5,a0
    a228:	00078c63          	beqz	a5,a240 <_vsnprintf+0x294>
    a22c:	f7040793          	addi	a5,s0,-144
    a230:	00078513          	mv	a0,a5
    a234:	e4cfe0ef          	jal	ra,8880 <_atoi>
    a238:	fca42223          	sw	a0,-60(s0)
    a23c:	0440006f          	j	a280 <_vsnprintf+0x2d4>
    a240:	f7042783          	lw	a5,-144(s0)
    a244:	0007c703          	lbu	a4,0(a5)
    a248:	02a00793          	li	a5,42
    a24c:	02f71a63          	bne	a4,a5,a280 <_vsnprintf+0x2d4>
    a250:	f6c42783          	lw	a5,-148(s0)
    a254:	00478713          	addi	a4,a5,4
    a258:	f6e42623          	sw	a4,-148(s0)
    a25c:	0007a783          	lw	a5,0(a5)
    a260:	faf42223          	sw	a5,-92(s0)
    a264:	fa442783          	lw	a5,-92(s0)
    a268:	0007d463          	bgez	a5,a270 <_vsnprintf+0x2c4>
    a26c:	00000793          	li	a5,0
    a270:	fcf42223          	sw	a5,-60(s0)
    a274:	f7042783          	lw	a5,-144(s0)
    a278:	00178793          	addi	a5,a5,1
    a27c:	f6f42823          	sw	a5,-144(s0)
    a280:	f7042783          	lw	a5,-144(s0)
    a284:	0007c783          	lbu	a5,0(a5)
    a288:	f9878793          	addi	a5,a5,-104
    a28c:	01200713          	li	a4,18
    a290:	0ef76c63          	bltu	a4,a5,a388 <_vsnprintf+0x3dc>
    a294:	00279713          	slli	a4,a5,0x2
    a298:	000287b7          	lui	a5,0x28
    a29c:	09478793          	addi	a5,a5,148 # 28094 <__data_address+0x94>
    a2a0:	00f707b3          	add	a5,a4,a5
    a2a4:	0007a783          	lw	a5,0(a5)
    a2a8:	00078067          	jr	a5
    a2ac:	fcc42783          	lw	a5,-52(s0)
    a2b0:	1007e793          	ori	a5,a5,256
    a2b4:	fcf42623          	sw	a5,-52(s0)
    a2b8:	f7042783          	lw	a5,-144(s0)
    a2bc:	00178793          	addi	a5,a5,1
    a2c0:	f6f42823          	sw	a5,-144(s0)
    a2c4:	f7042783          	lw	a5,-144(s0)
    a2c8:	0007c703          	lbu	a4,0(a5)
    a2cc:	06c00793          	li	a5,108
    a2d0:	0cf71063          	bne	a4,a5,a390 <_vsnprintf+0x3e4>
    a2d4:	fcc42783          	lw	a5,-52(s0)
    a2d8:	2007e793          	ori	a5,a5,512
    a2dc:	fcf42623          	sw	a5,-52(s0)
    a2e0:	f7042783          	lw	a5,-144(s0)
    a2e4:	00178793          	addi	a5,a5,1
    a2e8:	f6f42823          	sw	a5,-144(s0)
    a2ec:	0a40006f          	j	a390 <_vsnprintf+0x3e4>
    a2f0:	fcc42783          	lw	a5,-52(s0)
    a2f4:	0807e793          	ori	a5,a5,128
    a2f8:	fcf42623          	sw	a5,-52(s0)
    a2fc:	f7042783          	lw	a5,-144(s0)
    a300:	00178793          	addi	a5,a5,1
    a304:	f6f42823          	sw	a5,-144(s0)
    a308:	f7042783          	lw	a5,-144(s0)
    a30c:	0007c703          	lbu	a4,0(a5)
    a310:	06800793          	li	a5,104
    a314:	08f71263          	bne	a4,a5,a398 <_vsnprintf+0x3ec>
    a318:	fcc42783          	lw	a5,-52(s0)
    a31c:	0407e793          	ori	a5,a5,64
    a320:	fcf42623          	sw	a5,-52(s0)
    a324:	f7042783          	lw	a5,-144(s0)
    a328:	00178793          	addi	a5,a5,1
    a32c:	f6f42823          	sw	a5,-144(s0)
    a330:	0680006f          	j	a398 <_vsnprintf+0x3ec>
    a334:	fcc42783          	lw	a5,-52(s0)
    a338:	1007e793          	ori	a5,a5,256
    a33c:	fcf42623          	sw	a5,-52(s0)
    a340:	f7042783          	lw	a5,-144(s0)
    a344:	00178793          	addi	a5,a5,1
    a348:	f6f42823          	sw	a5,-144(s0)
    a34c:	0500006f          	j	a39c <_vsnprintf+0x3f0>
    a350:	fcc42783          	lw	a5,-52(s0)
    a354:	2007e793          	ori	a5,a5,512
    a358:	fcf42623          	sw	a5,-52(s0)
    a35c:	f7042783          	lw	a5,-144(s0)
    a360:	00178793          	addi	a5,a5,1
    a364:	f6f42823          	sw	a5,-144(s0)
    a368:	0340006f          	j	a39c <_vsnprintf+0x3f0>
    a36c:	fcc42783          	lw	a5,-52(s0)
    a370:	1007e793          	ori	a5,a5,256
    a374:	fcf42623          	sw	a5,-52(s0)
    a378:	f7042783          	lw	a5,-144(s0)
    a37c:	00178793          	addi	a5,a5,1
    a380:	f6f42823          	sw	a5,-144(s0)
    a384:	0180006f          	j	a39c <_vsnprintf+0x3f0>
    a388:	00000013          	nop
    a38c:	0100006f          	j	a39c <_vsnprintf+0x3f0>
    a390:	00000013          	nop
    a394:	0080006f          	j	a39c <_vsnprintf+0x3f0>
    a398:	00000013          	nop
    a39c:	f7042783          	lw	a5,-144(s0)
    a3a0:	0007c783          	lbu	a5,0(a5)
    a3a4:	06700713          	li	a4,103
    a3a8:	06f74e63          	blt	a4,a5,a424 <_vsnprintf+0x478>
    a3ac:	02500713          	li	a4,37
    a3b0:	04e7d863          	bge	a5,a4,a400 <_vsnprintf+0x454>
    a3b4:	1650006f          	j	ad18 <_vsnprintf+0xd6c>
    a3b8:	f9778793          	addi	a5,a5,-105
    a3bc:	00100713          	li	a4,1
    a3c0:	00f717b3          	sll	a5,a4,a5
    a3c4:	00009737          	lui	a4,0x9
    a3c8:	04170713          	addi	a4,a4,65 # 9041 <_ftoa+0x1d>
    a3cc:	00e7f733          	and	a4,a5,a4
    a3d0:	00e03733          	snez	a4,a4
    a3d4:	0ff77713          	zext.b	a4,a4
    a3d8:	06071063          	bnez	a4,a438 <_vsnprintf+0x48c>
    a3dc:	0807f713          	andi	a4,a5,128
    a3e0:	00e03733          	snez	a4,a4
    a3e4:	0ff77713          	zext.b	a4,a4
    a3e8:	020712e3          	bnez	a4,ac0c <_vsnprintf+0xc60>
    a3ec:	4007f793          	andi	a5,a5,1024
    a3f0:	00f037b3          	snez	a5,a5
    a3f4:	0ff7f793          	zext.b	a5,a5
    a3f8:	6c079063          	bnez	a5,aab8 <_vsnprintf+0xb0c>
    a3fc:	11d0006f          	j	ad18 <_vsnprintf+0xd6c>
    a400:	fdb78793          	addi	a5,a5,-37
    a404:	04200713          	li	a4,66
    a408:	10f768e3          	bltu	a4,a5,ad18 <_vsnprintf+0xd6c>
    a40c:	00279713          	slli	a4,a5,0x2
    a410:	000287b7          	lui	a5,0x28
    a414:	0e078793          	addi	a5,a5,224 # 280e0 <__data_address+0xe0>
    a418:	00f707b3          	add	a5,a4,a5
    a41c:	0007a783          	lw	a5,0(a5)
    a420:	00078067          	jr	a5
    a424:	07800713          	li	a4,120
    a428:	0ef748e3          	blt	a4,a5,ad18 <_vsnprintf+0xd6c>
    a42c:	06900713          	li	a4,105
    a430:	f8e7d4e3          	bge	a5,a4,a3b8 <_vsnprintf+0x40c>
    a434:	0e50006f          	j	ad18 <_vsnprintf+0xd6c>
    a438:	f7042783          	lw	a5,-144(s0)
    a43c:	0007c703          	lbu	a4,0(a5)
    a440:	07800793          	li	a5,120
    a444:	00f70a63          	beq	a4,a5,a458 <_vsnprintf+0x4ac>
    a448:	f7042783          	lw	a5,-144(s0)
    a44c:	0007c703          	lbu	a4,0(a5)
    a450:	05800793          	li	a5,88
    a454:	00f71863          	bne	a4,a5,a464 <_vsnprintf+0x4b8>
    a458:	01000793          	li	a5,16
    a45c:	faf42c23          	sw	a5,-72(s0)
    a460:	0500006f          	j	a4b0 <_vsnprintf+0x504>
    a464:	f7042783          	lw	a5,-144(s0)
    a468:	0007c703          	lbu	a4,0(a5)
    a46c:	06f00793          	li	a5,111
    a470:	00f71863          	bne	a4,a5,a480 <_vsnprintf+0x4d4>
    a474:	00800793          	li	a5,8
    a478:	faf42c23          	sw	a5,-72(s0)
    a47c:	0340006f          	j	a4b0 <_vsnprintf+0x504>
    a480:	f7042783          	lw	a5,-144(s0)
    a484:	0007c703          	lbu	a4,0(a5)
    a488:	06200793          	li	a5,98
    a48c:	00f71863          	bne	a4,a5,a49c <_vsnprintf+0x4f0>
    a490:	00200793          	li	a5,2
    a494:	faf42c23          	sw	a5,-72(s0)
    a498:	0180006f          	j	a4b0 <_vsnprintf+0x504>
    a49c:	00a00793          	li	a5,10
    a4a0:	faf42c23          	sw	a5,-72(s0)
    a4a4:	fcc42783          	lw	a5,-52(s0)
    a4a8:	fef7f793          	andi	a5,a5,-17
    a4ac:	fcf42623          	sw	a5,-52(s0)
    a4b0:	f7042783          	lw	a5,-144(s0)
    a4b4:	0007c703          	lbu	a4,0(a5)
    a4b8:	05800793          	li	a5,88
    a4bc:	00f71863          	bne	a4,a5,a4cc <_vsnprintf+0x520>
    a4c0:	fcc42783          	lw	a5,-52(s0)
    a4c4:	0207e793          	ori	a5,a5,32
    a4c8:	fcf42623          	sw	a5,-52(s0)
    a4cc:	f7042783          	lw	a5,-144(s0)
    a4d0:	0007c703          	lbu	a4,0(a5)
    a4d4:	06900793          	li	a5,105
    a4d8:	02f70063          	beq	a4,a5,a4f8 <_vsnprintf+0x54c>
    a4dc:	f7042783          	lw	a5,-144(s0)
    a4e0:	0007c703          	lbu	a4,0(a5)
    a4e4:	06400793          	li	a5,100
    a4e8:	00f70863          	beq	a4,a5,a4f8 <_vsnprintf+0x54c>
    a4ec:	fcc42783          	lw	a5,-52(s0)
    a4f0:	ff37f793          	andi	a5,a5,-13
    a4f4:	fcf42623          	sw	a5,-52(s0)
    a4f8:	fcc42783          	lw	a5,-52(s0)
    a4fc:	4007f793          	andi	a5,a5,1024
    a500:	00078863          	beqz	a5,a510 <_vsnprintf+0x564>
    a504:	fcc42783          	lw	a5,-52(s0)
    a508:	ffe7f793          	andi	a5,a5,-2
    a50c:	fcf42623          	sw	a5,-52(s0)
    a510:	f7042783          	lw	a5,-144(s0)
    a514:	0007c703          	lbu	a4,0(a5)
    a518:	06900793          	li	a5,105
    a51c:	00f70a63          	beq	a4,a5,a530 <_vsnprintf+0x584>
    a520:	f7042783          	lw	a5,-144(s0)
    a524:	0007c703          	lbu	a4,0(a5)
    a528:	06400793          	li	a5,100
    a52c:	20f71e63          	bne	a4,a5,a748 <_vsnprintf+0x79c>
    a530:	fcc42783          	lw	a5,-52(s0)
    a534:	2007f793          	andi	a5,a5,512
    a538:	0c078863          	beqz	a5,a608 <_vsnprintf+0x65c>
    a53c:	f6c42783          	lw	a5,-148(s0)
    a540:	00778793          	addi	a5,a5,7
    a544:	ff87f793          	andi	a5,a5,-8
    a548:	00878713          	addi	a4,a5,8
    a54c:	f6e42623          	sw	a4,-148(s0)
    a550:	0007a703          	lw	a4,0(a5)
    a554:	0047a783          	lw	a5,4(a5)
    a558:	f8e42423          	sw	a4,-120(s0)
    a55c:	f8f42623          	sw	a5,-116(s0)
    a560:	f8c42783          	lw	a5,-116(s0)
    a564:	41f7d913          	srai	s2,a5,0x1f
    a568:	f8c42783          	lw	a5,-116(s0)
    a56c:	41f7d993          	srai	s3,a5,0x1f
    a570:	f8842783          	lw	a5,-120(s0)
    a574:	0127ca33          	xor	s4,a5,s2
    a578:	f8c42783          	lw	a5,-116(s0)
    a57c:	0137cab3          	xor	s5,a5,s3
    a580:	412a0733          	sub	a4,s4,s2
    a584:	00070693          	mv	a3,a4
    a588:	00da36b3          	sltu	a3,s4,a3
    a58c:	413a87b3          	sub	a5,s5,s3
    a590:	40d786b3          	sub	a3,a5,a3
    a594:	00068793          	mv	a5,a3
    a598:	00070a13          	mv	s4,a4
    a59c:	00078a93          	mv	s5,a5
    a5a0:	000a0613          	mv	a2,s4
    a5a4:	000a8693          	mv	a3,s5
    a5a8:	f8c42783          	lw	a5,-116(s0)
    a5ac:	01f7d793          	srli	a5,a5,0x1f
    a5b0:	0ff7f713          	zext.b	a4,a5
    a5b4:	fb842783          	lw	a5,-72(s0)
    a5b8:	00078b13          	mv	s6,a5
    a5bc:	00000b93          	li	s7,0
    a5c0:	fcc42783          	lw	a5,-52(s0)
    a5c4:	00f12623          	sw	a5,12(sp)
    a5c8:	fc842783          	lw	a5,-56(s0)
    a5cc:	00f12423          	sw	a5,8(sp)
    a5d0:	fc442783          	lw	a5,-60(s0)
    a5d4:	00f12223          	sw	a5,4(sp)
    a5d8:	01712023          	sw	s7,0(sp)
    a5dc:	000b0893          	mv	a7,s6
    a5e0:	00070813          	mv	a6,a4
    a5e4:	00060713          	mv	a4,a2
    a5e8:	00068793          	mv	a5,a3
    a5ec:	f7442683          	lw	a3,-140(s0)
    a5f0:	fbc42603          	lw	a2,-68(s0)
    a5f4:	f7842583          	lw	a1,-136(s0)
    a5f8:	f7c42503          	lw	a0,-132(s0)
    a5fc:	895fe0ef          	jal	ra,8e90 <_ntoa_long_long>
    a600:	faa42e23          	sw	a0,-68(s0)
    a604:	2a40006f          	j	a8a8 <_vsnprintf+0x8fc>
    a608:	fcc42783          	lw	a5,-52(s0)
    a60c:	1007f793          	andi	a5,a5,256
    a610:	06078c63          	beqz	a5,a688 <_vsnprintf+0x6dc>
    a614:	f6c42783          	lw	a5,-148(s0)
    a618:	00478713          	addi	a4,a5,4
    a61c:	f6e42623          	sw	a4,-148(s0)
    a620:	0007a783          	lw	a5,0(a5)
    a624:	f8f42a23          	sw	a5,-108(s0)
    a628:	f9442783          	lw	a5,-108(s0)
    a62c:	41f7d713          	srai	a4,a5,0x1f
    a630:	f9442783          	lw	a5,-108(s0)
    a634:	00f747b3          	xor	a5,a4,a5
    a638:	40e787b3          	sub	a5,a5,a4
    a63c:	00078693          	mv	a3,a5
    a640:	f9442783          	lw	a5,-108(s0)
    a644:	01f7d793          	srli	a5,a5,0x1f
    a648:	0ff7f713          	zext.b	a4,a5
    a64c:	fcc42783          	lw	a5,-52(s0)
    a650:	00f12223          	sw	a5,4(sp)
    a654:	fc842783          	lw	a5,-56(s0)
    a658:	00f12023          	sw	a5,0(sp)
    a65c:	fc442883          	lw	a7,-60(s0)
    a660:	fb842803          	lw	a6,-72(s0)
    a664:	00070793          	mv	a5,a4
    a668:	00068713          	mv	a4,a3
    a66c:	f7442683          	lw	a3,-140(s0)
    a670:	fbc42603          	lw	a2,-68(s0)
    a674:	f7842583          	lw	a1,-136(s0)
    a678:	f7c42503          	lw	a0,-132(s0)
    a67c:	eccfe0ef          	jal	ra,8d48 <_ntoa_long>
    a680:	faa42e23          	sw	a0,-68(s0)
    a684:	2240006f          	j	a8a8 <_vsnprintf+0x8fc>
    a688:	fcc42783          	lw	a5,-52(s0)
    a68c:	0407f793          	andi	a5,a5,64
    a690:	00078e63          	beqz	a5,a6ac <_vsnprintf+0x700>
    a694:	f6c42783          	lw	a5,-148(s0)
    a698:	00478713          	addi	a4,a5,4
    a69c:	f6e42623          	sw	a4,-148(s0)
    a6a0:	0007a783          	lw	a5,0(a5)
    a6a4:	0ff7f793          	zext.b	a5,a5
    a6a8:	03c0006f          	j	a6e4 <_vsnprintf+0x738>
    a6ac:	fcc42783          	lw	a5,-52(s0)
    a6b0:	0807f793          	andi	a5,a5,128
    a6b4:	02078063          	beqz	a5,a6d4 <_vsnprintf+0x728>
    a6b8:	f6c42783          	lw	a5,-148(s0)
    a6bc:	00478713          	addi	a4,a5,4
    a6c0:	f6e42623          	sw	a4,-148(s0)
    a6c4:	0007a783          	lw	a5,0(a5)
    a6c8:	01079793          	slli	a5,a5,0x10
    a6cc:	4107d793          	srai	a5,a5,0x10
    a6d0:	0140006f          	j	a6e4 <_vsnprintf+0x738>
    a6d4:	f6c42783          	lw	a5,-148(s0)
    a6d8:	00478713          	addi	a4,a5,4
    a6dc:	f6e42623          	sw	a4,-148(s0)
    a6e0:	0007a783          	lw	a5,0(a5)
    a6e4:	f8f42c23          	sw	a5,-104(s0)
    a6e8:	f9842783          	lw	a5,-104(s0)
    a6ec:	41f7d713          	srai	a4,a5,0x1f
    a6f0:	f9842783          	lw	a5,-104(s0)
    a6f4:	00f747b3          	xor	a5,a4,a5
    a6f8:	40e787b3          	sub	a5,a5,a4
    a6fc:	00078693          	mv	a3,a5
    a700:	f9842783          	lw	a5,-104(s0)
    a704:	01f7d793          	srli	a5,a5,0x1f
    a708:	0ff7f713          	zext.b	a4,a5
    a70c:	fcc42783          	lw	a5,-52(s0)
    a710:	00f12223          	sw	a5,4(sp)
    a714:	fc842783          	lw	a5,-56(s0)
    a718:	00f12023          	sw	a5,0(sp)
    a71c:	fc442883          	lw	a7,-60(s0)
    a720:	fb842803          	lw	a6,-72(s0)
    a724:	00070793          	mv	a5,a4
    a728:	00068713          	mv	a4,a3
    a72c:	f7442683          	lw	a3,-140(s0)
    a730:	fbc42603          	lw	a2,-68(s0)
    a734:	f7842583          	lw	a1,-136(s0)
    a738:	f7c42503          	lw	a0,-132(s0)
    a73c:	e0cfe0ef          	jal	ra,8d48 <_ntoa_long>
    a740:	faa42e23          	sw	a0,-68(s0)
    a744:	1640006f          	j	a8a8 <_vsnprintf+0x8fc>
    a748:	fcc42783          	lw	a5,-52(s0)
    a74c:	2007f793          	andi	a5,a5,512
    a750:	06078663          	beqz	a5,a7bc <_vsnprintf+0x810>
    a754:	f6c42783          	lw	a5,-148(s0)
    a758:	00778793          	addi	a5,a5,7
    a75c:	ff87f793          	andi	a5,a5,-8
    a760:	00878713          	addi	a4,a5,8
    a764:	f6e42623          	sw	a4,-148(s0)
    a768:	0007a703          	lw	a4,0(a5)
    a76c:	0047a783          	lw	a5,4(a5)
    a770:	fb842683          	lw	a3,-72(s0)
    a774:	00068c13          	mv	s8,a3
    a778:	00000c93          	li	s9,0
    a77c:	fcc42683          	lw	a3,-52(s0)
    a780:	00d12623          	sw	a3,12(sp)
    a784:	fc842683          	lw	a3,-56(s0)
    a788:	00d12423          	sw	a3,8(sp)
    a78c:	fc442683          	lw	a3,-60(s0)
    a790:	00d12223          	sw	a3,4(sp)
    a794:	01912023          	sw	s9,0(sp)
    a798:	000c0893          	mv	a7,s8
    a79c:	00000813          	li	a6,0
    a7a0:	f7442683          	lw	a3,-140(s0)
    a7a4:	fbc42603          	lw	a2,-68(s0)
    a7a8:	f7842583          	lw	a1,-136(s0)
    a7ac:	f7c42503          	lw	a0,-132(s0)
    a7b0:	ee0fe0ef          	jal	ra,8e90 <_ntoa_long_long>
    a7b4:	faa42e23          	sw	a0,-68(s0)
    a7b8:	0f00006f          	j	a8a8 <_vsnprintf+0x8fc>
    a7bc:	fcc42783          	lw	a5,-52(s0)
    a7c0:	1007f793          	andi	a5,a5,256
    a7c4:	04078663          	beqz	a5,a810 <_vsnprintf+0x864>
    a7c8:	f6c42783          	lw	a5,-148(s0)
    a7cc:	00478713          	addi	a4,a5,4
    a7d0:	f6e42623          	sw	a4,-148(s0)
    a7d4:	0007a703          	lw	a4,0(a5)
    a7d8:	fcc42783          	lw	a5,-52(s0)
    a7dc:	00f12223          	sw	a5,4(sp)
    a7e0:	fc842783          	lw	a5,-56(s0)
    a7e4:	00f12023          	sw	a5,0(sp)
    a7e8:	fc442883          	lw	a7,-60(s0)
    a7ec:	fb842803          	lw	a6,-72(s0)
    a7f0:	00000793          	li	a5,0
    a7f4:	f7442683          	lw	a3,-140(s0)
    a7f8:	fbc42603          	lw	a2,-68(s0)
    a7fc:	f7842583          	lw	a1,-136(s0)
    a800:	f7c42503          	lw	a0,-132(s0)
    a804:	d44fe0ef          	jal	ra,8d48 <_ntoa_long>
    a808:	faa42e23          	sw	a0,-68(s0)
    a80c:	09c0006f          	j	a8a8 <_vsnprintf+0x8fc>
    a810:	fcc42783          	lw	a5,-52(s0)
    a814:	0407f793          	andi	a5,a5,64
    a818:	00078e63          	beqz	a5,a834 <_vsnprintf+0x888>
    a81c:	f6c42783          	lw	a5,-148(s0)
    a820:	00478713          	addi	a4,a5,4
    a824:	f6e42623          	sw	a4,-148(s0)
    a828:	0007a783          	lw	a5,0(a5)
    a82c:	0ff7f793          	zext.b	a5,a5
    a830:	03c0006f          	j	a86c <_vsnprintf+0x8c0>
    a834:	fcc42783          	lw	a5,-52(s0)
    a838:	0807f793          	andi	a5,a5,128
    a83c:	02078063          	beqz	a5,a85c <_vsnprintf+0x8b0>
    a840:	f6c42783          	lw	a5,-148(s0)
    a844:	00478713          	addi	a4,a5,4
    a848:	f6e42623          	sw	a4,-148(s0)
    a84c:	0007a783          	lw	a5,0(a5)
    a850:	01079793          	slli	a5,a5,0x10
    a854:	0107d793          	srli	a5,a5,0x10
    a858:	0140006f          	j	a86c <_vsnprintf+0x8c0>
    a85c:	f6c42783          	lw	a5,-148(s0)
    a860:	00478713          	addi	a4,a5,4
    a864:	f6e42623          	sw	a4,-148(s0)
    a868:	0007a783          	lw	a5,0(a5)
    a86c:	f8f42e23          	sw	a5,-100(s0)
    a870:	fcc42783          	lw	a5,-52(s0)
    a874:	00f12223          	sw	a5,4(sp)
    a878:	fc842783          	lw	a5,-56(s0)
    a87c:	00f12023          	sw	a5,0(sp)
    a880:	fc442883          	lw	a7,-60(s0)
    a884:	fb842803          	lw	a6,-72(s0)
    a888:	00000793          	li	a5,0
    a88c:	f9c42703          	lw	a4,-100(s0)
    a890:	f7442683          	lw	a3,-140(s0)
    a894:	fbc42603          	lw	a2,-68(s0)
    a898:	f7842583          	lw	a1,-136(s0)
    a89c:	f7c42503          	lw	a0,-132(s0)
    a8a0:	ca8fe0ef          	jal	ra,8d48 <_ntoa_long>
    a8a4:	faa42e23          	sw	a0,-68(s0)
    a8a8:	f7042783          	lw	a5,-144(s0)
    a8ac:	00178793          	addi	a5,a5,1
    a8b0:	f6f42823          	sw	a5,-144(s0)
    a8b4:	49c0006f          	j	ad50 <_vsnprintf+0xda4>
    a8b8:	f7042783          	lw	a5,-144(s0)
    a8bc:	0007c703          	lbu	a4,0(a5)
    a8c0:	04600793          	li	a5,70
    a8c4:	00f71863          	bne	a4,a5,a8d4 <_vsnprintf+0x928>
    a8c8:	fcc42783          	lw	a5,-52(s0)
    a8cc:	0207e793          	ori	a5,a5,32
    a8d0:	fcf42623          	sw	a5,-52(s0)
    a8d4:	f6c42783          	lw	a5,-148(s0)
    a8d8:	00778793          	addi	a5,a5,7
    a8dc:	ff87f793          	andi	a5,a5,-8
    a8e0:	00878713          	addi	a4,a5,8
    a8e4:	f6e42623          	sw	a4,-148(s0)
    a8e8:	0007a703          	lw	a4,0(a5)
    a8ec:	0047a783          	lw	a5,4(a5)
    a8f0:	fcc42683          	lw	a3,-52(s0)
    a8f4:	00d12023          	sw	a3,0(sp)
    a8f8:	fc842883          	lw	a7,-56(s0)
    a8fc:	fc442803          	lw	a6,-60(s0)
    a900:	f7442683          	lw	a3,-140(s0)
    a904:	fbc42603          	lw	a2,-68(s0)
    a908:	f7842583          	lw	a1,-136(s0)
    a90c:	f7c42503          	lw	a0,-132(s0)
    a910:	f14fe0ef          	jal	ra,9024 <_ftoa>
    a914:	faa42e23          	sw	a0,-68(s0)
    a918:	f7042783          	lw	a5,-144(s0)
    a91c:	00178793          	addi	a5,a5,1
    a920:	f6f42823          	sw	a5,-144(s0)
    a924:	42c0006f          	j	ad50 <_vsnprintf+0xda4>
    a928:	f7042783          	lw	a5,-144(s0)
    a92c:	0007c703          	lbu	a4,0(a5)
    a930:	06700793          	li	a5,103
    a934:	00f70a63          	beq	a4,a5,a948 <_vsnprintf+0x99c>
    a938:	f7042783          	lw	a5,-144(s0)
    a93c:	0007c703          	lbu	a4,0(a5)
    a940:	04700793          	li	a5,71
    a944:	00f71c63          	bne	a4,a5,a95c <_vsnprintf+0x9b0>
    a948:	fcc42703          	lw	a4,-52(s0)
    a94c:	000017b7          	lui	a5,0x1
    a950:	80078793          	addi	a5,a5,-2048 # 800 <_isr_vector-0x7800>
    a954:	00f767b3          	or	a5,a4,a5
    a958:	fcf42623          	sw	a5,-52(s0)
    a95c:	f7042783          	lw	a5,-144(s0)
    a960:	0007c703          	lbu	a4,0(a5)
    a964:	04500793          	li	a5,69
    a968:	00f70a63          	beq	a4,a5,a97c <_vsnprintf+0x9d0>
    a96c:	f7042783          	lw	a5,-144(s0)
    a970:	0007c703          	lbu	a4,0(a5)
    a974:	04700793          	li	a5,71
    a978:	00f71863          	bne	a4,a5,a988 <_vsnprintf+0x9dc>
    a97c:	fcc42783          	lw	a5,-52(s0)
    a980:	0207e793          	ori	a5,a5,32
    a984:	fcf42623          	sw	a5,-52(s0)
    a988:	f6c42783          	lw	a5,-148(s0)
    a98c:	00778793          	addi	a5,a5,7
    a990:	ff87f793          	andi	a5,a5,-8
    a994:	00878713          	addi	a4,a5,8
    a998:	f6e42623          	sw	a4,-148(s0)
    a99c:	0007a703          	lw	a4,0(a5)
    a9a0:	0047a783          	lw	a5,4(a5)
    a9a4:	fcc42683          	lw	a3,-52(s0)
    a9a8:	00d12023          	sw	a3,0(sp)
    a9ac:	fc842883          	lw	a7,-56(s0)
    a9b0:	fc442803          	lw	a6,-60(s0)
    a9b4:	f7442683          	lw	a3,-140(s0)
    a9b8:	fbc42603          	lw	a2,-68(s0)
    a9bc:	f7842583          	lw	a1,-136(s0)
    a9c0:	f7c42503          	lw	a0,-132(s0)
    a9c4:	d79fe0ef          	jal	ra,973c <_etoa>
    a9c8:	faa42e23          	sw	a0,-68(s0)
    a9cc:	f7042783          	lw	a5,-144(s0)
    a9d0:	00178793          	addi	a5,a5,1
    a9d4:	f6f42823          	sw	a5,-144(s0)
    a9d8:	3780006f          	j	ad50 <_vsnprintf+0xda4>
    a9dc:	00100793          	li	a5,1
    a9e0:	faf42a23          	sw	a5,-76(s0)
    a9e4:	fcc42783          	lw	a5,-52(s0)
    a9e8:	0027f793          	andi	a5,a5,2
    a9ec:	04079063          	bnez	a5,aa2c <_vsnprintf+0xa80>
    a9f0:	0280006f          	j	aa18 <_vsnprintf+0xa6c>
    a9f4:	fbc42783          	lw	a5,-68(s0)
    a9f8:	00178713          	addi	a4,a5,1
    a9fc:	fae42e23          	sw	a4,-68(s0)
    aa00:	f7c42703          	lw	a4,-132(s0)
    aa04:	f7442683          	lw	a3,-140(s0)
    aa08:	00078613          	mv	a2,a5
    aa0c:	f7842583          	lw	a1,-136(s0)
    aa10:	02000513          	li	a0,32
    aa14:	000700e7          	jalr	a4
    aa18:	fb442783          	lw	a5,-76(s0)
    aa1c:	00178713          	addi	a4,a5,1
    aa20:	fae42a23          	sw	a4,-76(s0)
    aa24:	fc842703          	lw	a4,-56(s0)
    aa28:	fce7e6e3          	bltu	a5,a4,a9f4 <_vsnprintf+0xa48>
    aa2c:	f6c42783          	lw	a5,-148(s0)
    aa30:	00478713          	addi	a4,a5,4
    aa34:	f6e42623          	sw	a4,-148(s0)
    aa38:	0007a783          	lw	a5,0(a5)
    aa3c:	0ff7f513          	zext.b	a0,a5
    aa40:	fbc42783          	lw	a5,-68(s0)
    aa44:	00178713          	addi	a4,a5,1
    aa48:	fae42e23          	sw	a4,-68(s0)
    aa4c:	f7c42703          	lw	a4,-132(s0)
    aa50:	f7442683          	lw	a3,-140(s0)
    aa54:	00078613          	mv	a2,a5
    aa58:	f7842583          	lw	a1,-136(s0)
    aa5c:	000700e7          	jalr	a4
    aa60:	fcc42783          	lw	a5,-52(s0)
    aa64:	0027f793          	andi	a5,a5,2
    aa68:	04078063          	beqz	a5,aaa8 <_vsnprintf+0xafc>
    aa6c:	0280006f          	j	aa94 <_vsnprintf+0xae8>
    aa70:	fbc42783          	lw	a5,-68(s0)
    aa74:	00178713          	addi	a4,a5,1
    aa78:	fae42e23          	sw	a4,-68(s0)
    aa7c:	f7c42703          	lw	a4,-132(s0)
    aa80:	f7442683          	lw	a3,-140(s0)
    aa84:	00078613          	mv	a2,a5
    aa88:	f7842583          	lw	a1,-136(s0)
    aa8c:	02000513          	li	a0,32
    aa90:	000700e7          	jalr	a4
    aa94:	fb442783          	lw	a5,-76(s0)
    aa98:	00178713          	addi	a4,a5,1
    aa9c:	fae42a23          	sw	a4,-76(s0)
    aaa0:	fc842703          	lw	a4,-56(s0)
    aaa4:	fce7e6e3          	bltu	a5,a4,aa70 <_vsnprintf+0xac4>
    aaa8:	f7042783          	lw	a5,-144(s0)
    aaac:	00178793          	addi	a5,a5,1
    aab0:	f6f42823          	sw	a5,-144(s0)
    aab4:	29c0006f          	j	ad50 <_vsnprintf+0xda4>
    aab8:	f6c42783          	lw	a5,-148(s0)
    aabc:	00478713          	addi	a4,a5,4
    aac0:	f6e42623          	sw	a4,-148(s0)
    aac4:	0007a783          	lw	a5,0(a5)
    aac8:	faf42823          	sw	a5,-80(s0)
    aacc:	fc442783          	lw	a5,-60(s0)
    aad0:	00078663          	beqz	a5,aadc <_vsnprintf+0xb30>
    aad4:	fc442783          	lw	a5,-60(s0)
    aad8:	0080006f          	j	aae0 <_vsnprintf+0xb34>
    aadc:	fff00793          	li	a5,-1
    aae0:	00078593          	mv	a1,a5
    aae4:	fb042503          	lw	a0,-80(s0)
    aae8:	ce5fd0ef          	jal	ra,87cc <_strnlen_s>
    aaec:	faa42623          	sw	a0,-84(s0)
    aaf0:	fcc42783          	lw	a5,-52(s0)
    aaf4:	4007f793          	andi	a5,a5,1024
    aaf8:	00078c63          	beqz	a5,ab10 <_vsnprintf+0xb64>
    aafc:	fac42703          	lw	a4,-84(s0)
    ab00:	fc442783          	lw	a5,-60(s0)
    ab04:	00f77463          	bgeu	a4,a5,ab0c <_vsnprintf+0xb60>
    ab08:	00070793          	mv	a5,a4
    ab0c:	faf42623          	sw	a5,-84(s0)
    ab10:	fcc42783          	lw	a5,-52(s0)
    ab14:	0027f793          	andi	a5,a5,2
    ab18:	06079a63          	bnez	a5,ab8c <_vsnprintf+0xbe0>
    ab1c:	0280006f          	j	ab44 <_vsnprintf+0xb98>
    ab20:	fbc42783          	lw	a5,-68(s0)
    ab24:	00178713          	addi	a4,a5,1
    ab28:	fae42e23          	sw	a4,-68(s0)
    ab2c:	f7c42703          	lw	a4,-132(s0)
    ab30:	f7442683          	lw	a3,-140(s0)
    ab34:	00078613          	mv	a2,a5
    ab38:	f7842583          	lw	a1,-136(s0)
    ab3c:	02000513          	li	a0,32
    ab40:	000700e7          	jalr	a4
    ab44:	fac42783          	lw	a5,-84(s0)
    ab48:	00178713          	addi	a4,a5,1
    ab4c:	fae42623          	sw	a4,-84(s0)
    ab50:	fc842703          	lw	a4,-56(s0)
    ab54:	fce7e6e3          	bltu	a5,a4,ab20 <_vsnprintf+0xb74>
    ab58:	0340006f          	j	ab8c <_vsnprintf+0xbe0>
    ab5c:	fb042783          	lw	a5,-80(s0)
    ab60:	00178713          	addi	a4,a5,1
    ab64:	fae42823          	sw	a4,-80(s0)
    ab68:	0007c503          	lbu	a0,0(a5)
    ab6c:	fbc42783          	lw	a5,-68(s0)
    ab70:	00178713          	addi	a4,a5,1
    ab74:	fae42e23          	sw	a4,-68(s0)
    ab78:	f7c42703          	lw	a4,-132(s0)
    ab7c:	f7442683          	lw	a3,-140(s0)
    ab80:	00078613          	mv	a2,a5
    ab84:	f7842583          	lw	a1,-136(s0)
    ab88:	000700e7          	jalr	a4
    ab8c:	fb042783          	lw	a5,-80(s0)
    ab90:	0007c783          	lbu	a5,0(a5)
    ab94:	02078063          	beqz	a5,abb4 <_vsnprintf+0xc08>
    ab98:	fcc42783          	lw	a5,-52(s0)
    ab9c:	4007f793          	andi	a5,a5,1024
    aba0:	fa078ee3          	beqz	a5,ab5c <_vsnprintf+0xbb0>
    aba4:	fc442783          	lw	a5,-60(s0)
    aba8:	fff78713          	addi	a4,a5,-1
    abac:	fce42223          	sw	a4,-60(s0)
    abb0:	fa0796e3          	bnez	a5,ab5c <_vsnprintf+0xbb0>
    abb4:	fcc42783          	lw	a5,-52(s0)
    abb8:	0027f793          	andi	a5,a5,2
    abbc:	04078063          	beqz	a5,abfc <_vsnprintf+0xc50>
    abc0:	0280006f          	j	abe8 <_vsnprintf+0xc3c>
    abc4:	fbc42783          	lw	a5,-68(s0)
    abc8:	00178713          	addi	a4,a5,1
    abcc:	fae42e23          	sw	a4,-68(s0)
    abd0:	f7c42703          	lw	a4,-132(s0)
    abd4:	f7442683          	lw	a3,-140(s0)
    abd8:	00078613          	mv	a2,a5
    abdc:	f7842583          	lw	a1,-136(s0)
    abe0:	02000513          	li	a0,32
    abe4:	000700e7          	jalr	a4
    abe8:	fac42783          	lw	a5,-84(s0)
    abec:	00178713          	addi	a4,a5,1
    abf0:	fae42623          	sw	a4,-84(s0)
    abf4:	fc842703          	lw	a4,-56(s0)
    abf8:	fce7e6e3          	bltu	a5,a4,abc4 <_vsnprintf+0xc18>
    abfc:	f7042783          	lw	a5,-144(s0)
    ac00:	00178793          	addi	a5,a5,1
    ac04:	f6f42823          	sw	a5,-144(s0)
    ac08:	1480006f          	j	ad50 <_vsnprintf+0xda4>
    ac0c:	00800793          	li	a5,8
    ac10:	fcf42423          	sw	a5,-56(s0)
    ac14:	fcc42783          	lw	a5,-52(s0)
    ac18:	0217e793          	ori	a5,a5,33
    ac1c:	fcf42623          	sw	a5,-52(s0)
    ac20:	fa0401a3          	sb	zero,-93(s0)
    ac24:	fa344783          	lbu	a5,-93(s0)
    ac28:	06078263          	beqz	a5,ac8c <_vsnprintf+0xce0>
    ac2c:	f6c42783          	lw	a5,-148(s0)
    ac30:	00478713          	addi	a4,a5,4
    ac34:	f6e42623          	sw	a4,-148(s0)
    ac38:	0007a783          	lw	a5,0(a5)
    ac3c:	00078d13          	mv	s10,a5
    ac40:	00000d93          	li	s11,0
    ac44:	fcc42783          	lw	a5,-52(s0)
    ac48:	00f12623          	sw	a5,12(sp)
    ac4c:	fc842783          	lw	a5,-56(s0)
    ac50:	00f12423          	sw	a5,8(sp)
    ac54:	fc442783          	lw	a5,-60(s0)
    ac58:	00f12223          	sw	a5,4(sp)
    ac5c:	00012023          	sw	zero,0(sp)
    ac60:	01000893          	li	a7,16
    ac64:	00000813          	li	a6,0
    ac68:	000d0713          	mv	a4,s10
    ac6c:	000d8793          	mv	a5,s11
    ac70:	f7442683          	lw	a3,-140(s0)
    ac74:	fbc42603          	lw	a2,-68(s0)
    ac78:	f7842583          	lw	a1,-136(s0)
    ac7c:	f7c42503          	lw	a0,-132(s0)
    ac80:	a10fe0ef          	jal	ra,8e90 <_ntoa_long_long>
    ac84:	faa42e23          	sw	a0,-68(s0)
    ac88:	04c0006f          	j	acd4 <_vsnprintf+0xd28>
    ac8c:	f6c42783          	lw	a5,-148(s0)
    ac90:	00478713          	addi	a4,a5,4
    ac94:	f6e42623          	sw	a4,-148(s0)
    ac98:	0007a783          	lw	a5,0(a5)
    ac9c:	00078713          	mv	a4,a5
    aca0:	fcc42783          	lw	a5,-52(s0)
    aca4:	00f12223          	sw	a5,4(sp)
    aca8:	fc842783          	lw	a5,-56(s0)
    acac:	00f12023          	sw	a5,0(sp)
    acb0:	fc442883          	lw	a7,-60(s0)
    acb4:	01000813          	li	a6,16
    acb8:	00000793          	li	a5,0
    acbc:	f7442683          	lw	a3,-140(s0)
    acc0:	fbc42603          	lw	a2,-68(s0)
    acc4:	f7842583          	lw	a1,-136(s0)
    acc8:	f7c42503          	lw	a0,-132(s0)
    accc:	87cfe0ef          	jal	ra,8d48 <_ntoa_long>
    acd0:	faa42e23          	sw	a0,-68(s0)
    acd4:	f7042783          	lw	a5,-144(s0)
    acd8:	00178793          	addi	a5,a5,1
    acdc:	f6f42823          	sw	a5,-144(s0)
    ace0:	0700006f          	j	ad50 <_vsnprintf+0xda4>
    ace4:	fbc42783          	lw	a5,-68(s0)
    ace8:	00178713          	addi	a4,a5,1
    acec:	fae42e23          	sw	a4,-68(s0)
    acf0:	f7c42703          	lw	a4,-132(s0)
    acf4:	f7442683          	lw	a3,-140(s0)
    acf8:	00078613          	mv	a2,a5
    acfc:	f7842583          	lw	a1,-136(s0)
    ad00:	02500513          	li	a0,37
    ad04:	000700e7          	jalr	a4
    ad08:	f7042783          	lw	a5,-144(s0)
    ad0c:	00178793          	addi	a5,a5,1
    ad10:	f6f42823          	sw	a5,-144(s0)
    ad14:	03c0006f          	j	ad50 <_vsnprintf+0xda4>
    ad18:	f7042783          	lw	a5,-144(s0)
    ad1c:	0007c503          	lbu	a0,0(a5)
    ad20:	fbc42783          	lw	a5,-68(s0)
    ad24:	00178713          	addi	a4,a5,1
    ad28:	fae42e23          	sw	a4,-68(s0)
    ad2c:	f7c42703          	lw	a4,-132(s0)
    ad30:	f7442683          	lw	a3,-140(s0)
    ad34:	00078613          	mv	a2,a5
    ad38:	f7842583          	lw	a1,-136(s0)
    ad3c:	000700e7          	jalr	a4
    ad40:	f7042783          	lw	a5,-144(s0)
    ad44:	00178793          	addi	a5,a5,1
    ad48:	f6f42823          	sw	a5,-144(s0)
    ad4c:	00000013          	nop
    ad50:	f7042783          	lw	a5,-144(s0)
    ad54:	0007c783          	lbu	a5,0(a5)
    ad58:	aa079e63          	bnez	a5,a014 <_vsnprintf+0x68>
    ad5c:	fbc42703          	lw	a4,-68(s0)
    ad60:	f7442783          	lw	a5,-140(s0)
    ad64:	00f76863          	bltu	a4,a5,ad74 <_vsnprintf+0xdc8>
    ad68:	f7442783          	lw	a5,-140(s0)
    ad6c:	fff78793          	addi	a5,a5,-1
    ad70:	0080006f          	j	ad78 <_vsnprintf+0xdcc>
    ad74:	fbc42783          	lw	a5,-68(s0)
    ad78:	f7c42703          	lw	a4,-132(s0)
    ad7c:	f7442683          	lw	a3,-140(s0)
    ad80:	00078613          	mv	a2,a5
    ad84:	f7842583          	lw	a1,-136(s0)
    ad88:	00000513          	li	a0,0
    ad8c:	000700e7          	jalr	a4
    ad90:	fbc42783          	lw	a5,-68(s0)
    ad94:	00078513          	mv	a0,a5
    ad98:	0ac12083          	lw	ra,172(sp)
    ad9c:	0a812403          	lw	s0,168(sp)
    ada0:	0a412903          	lw	s2,164(sp)
    ada4:	0a012983          	lw	s3,160(sp)
    ada8:	09c12a03          	lw	s4,156(sp)
    adac:	09812a83          	lw	s5,152(sp)
    adb0:	09412b03          	lw	s6,148(sp)
    adb4:	09012b83          	lw	s7,144(sp)
    adb8:	08c12c03          	lw	s8,140(sp)
    adbc:	08812c83          	lw	s9,136(sp)
    adc0:	08412d03          	lw	s10,132(sp)
    adc4:	08012d83          	lw	s11,128(sp)
    adc8:	0b010113          	addi	sp,sp,176
    adcc:	00008067          	ret

0000add0 <printf_>:
    add0:	fb010113          	addi	sp,sp,-80
    add4:	02112623          	sw	ra,44(sp)
    add8:	02812423          	sw	s0,40(sp)
    addc:	03010413          	addi	s0,sp,48
    ade0:	fca42e23          	sw	a0,-36(s0)
    ade4:	00b42223          	sw	a1,4(s0)
    ade8:	00c42423          	sw	a2,8(s0)
    adec:	00d42623          	sw	a3,12(s0)
    adf0:	00e42823          	sw	a4,16(s0)
    adf4:	00f42a23          	sw	a5,20(s0)
    adf8:	01042c23          	sw	a6,24(s0)
    adfc:	01142e23          	sw	a7,28(s0)
    ae00:	02040793          	addi	a5,s0,32
    ae04:	fcf42c23          	sw	a5,-40(s0)
    ae08:	fd842783          	lw	a5,-40(s0)
    ae0c:	fe478793          	addi	a5,a5,-28
    ae10:	fef42423          	sw	a5,-24(s0)
    ae14:	fe842703          	lw	a4,-24(s0)
    ae18:	fe440793          	addi	a5,s0,-28
    ae1c:	fdc42683          	lw	a3,-36(s0)
    ae20:	fff00613          	li	a2,-1
    ae24:	00078593          	mv	a1,a5
    ae28:	000087b7          	lui	a5,0x8
    ae2c:	72078513          	addi	a0,a5,1824 # 8720 <_out_char>
    ae30:	97cff0ef          	jal	ra,9fac <_vsnprintf>
    ae34:	fea42623          	sw	a0,-20(s0)
    ae38:	fec42783          	lw	a5,-20(s0)
    ae3c:	00078513          	mv	a0,a5
    ae40:	02c12083          	lw	ra,44(sp)
    ae44:	02812403          	lw	s0,40(sp)
    ae48:	05010113          	addi	sp,sp,80
    ae4c:	00008067          	ret

0000ae50 <sprintf_>:
    ae50:	fb010113          	addi	sp,sp,-80
    ae54:	02112623          	sw	ra,44(sp)
    ae58:	02812423          	sw	s0,40(sp)
    ae5c:	03010413          	addi	s0,sp,48
    ae60:	fca42e23          	sw	a0,-36(s0)
    ae64:	fcb42c23          	sw	a1,-40(s0)
    ae68:	00c42423          	sw	a2,8(s0)
    ae6c:	00d42623          	sw	a3,12(s0)
    ae70:	00e42823          	sw	a4,16(s0)
    ae74:	00f42a23          	sw	a5,20(s0)
    ae78:	01042c23          	sw	a6,24(s0)
    ae7c:	01142e23          	sw	a7,28(s0)
    ae80:	02040793          	addi	a5,s0,32
    ae84:	fcf42a23          	sw	a5,-44(s0)
    ae88:	fd442783          	lw	a5,-44(s0)
    ae8c:	fe878793          	addi	a5,a5,-24
    ae90:	fef42423          	sw	a5,-24(s0)
    ae94:	fe842783          	lw	a5,-24(s0)
    ae98:	00078713          	mv	a4,a5
    ae9c:	fd842683          	lw	a3,-40(s0)
    aea0:	fff00613          	li	a2,-1
    aea4:	fdc42583          	lw	a1,-36(s0)
    aea8:	000087b7          	lui	a5,0x8
    aeac:	6a078513          	addi	a0,a5,1696 # 86a0 <_out_buffer>
    aeb0:	8fcff0ef          	jal	ra,9fac <_vsnprintf>
    aeb4:	fea42623          	sw	a0,-20(s0)
    aeb8:	fec42783          	lw	a5,-20(s0)
    aebc:	00078513          	mv	a0,a5
    aec0:	02c12083          	lw	ra,44(sp)
    aec4:	02812403          	lw	s0,40(sp)
    aec8:	05010113          	addi	sp,sp,80
    aecc:	00008067          	ret

0000aed0 <snprintf_>:
    aed0:	fb010113          	addi	sp,sp,-80
    aed4:	02112623          	sw	ra,44(sp)
    aed8:	02812423          	sw	s0,40(sp)
    aedc:	03010413          	addi	s0,sp,48
    aee0:	fca42e23          	sw	a0,-36(s0)
    aee4:	fcb42c23          	sw	a1,-40(s0)
    aee8:	fcc42a23          	sw	a2,-44(s0)
    aeec:	00d42623          	sw	a3,12(s0)
    aef0:	00e42823          	sw	a4,16(s0)
    aef4:	00f42a23          	sw	a5,20(s0)
    aef8:	01042c23          	sw	a6,24(s0)
    aefc:	01142e23          	sw	a7,28(s0)
    af00:	02040793          	addi	a5,s0,32
    af04:	fcf42823          	sw	a5,-48(s0)
    af08:	fd042783          	lw	a5,-48(s0)
    af0c:	fec78793          	addi	a5,a5,-20
    af10:	fef42423          	sw	a5,-24(s0)
    af14:	fe842783          	lw	a5,-24(s0)
    af18:	00078713          	mv	a4,a5
    af1c:	fd442683          	lw	a3,-44(s0)
    af20:	fd842603          	lw	a2,-40(s0)
    af24:	fdc42583          	lw	a1,-36(s0)
    af28:	000087b7          	lui	a5,0x8
    af2c:	6a078513          	addi	a0,a5,1696 # 86a0 <_out_buffer>
    af30:	87cff0ef          	jal	ra,9fac <_vsnprintf>
    af34:	fea42623          	sw	a0,-20(s0)
    af38:	fec42783          	lw	a5,-20(s0)
    af3c:	00078513          	mv	a0,a5
    af40:	02c12083          	lw	ra,44(sp)
    af44:	02812403          	lw	s0,40(sp)
    af48:	05010113          	addi	sp,sp,80
    af4c:	00008067          	ret

0000af50 <vprintf_>:
    af50:	fd010113          	addi	sp,sp,-48
    af54:	02112623          	sw	ra,44(sp)
    af58:	02812423          	sw	s0,40(sp)
    af5c:	03010413          	addi	s0,sp,48
    af60:	fca42e23          	sw	a0,-36(s0)
    af64:	fcb42c23          	sw	a1,-40(s0)
    af68:	fec40793          	addi	a5,s0,-20
    af6c:	fd842703          	lw	a4,-40(s0)
    af70:	fdc42683          	lw	a3,-36(s0)
    af74:	fff00613          	li	a2,-1
    af78:	00078593          	mv	a1,a5
    af7c:	000087b7          	lui	a5,0x8
    af80:	72078513          	addi	a0,a5,1824 # 8720 <_out_char>
    af84:	828ff0ef          	jal	ra,9fac <_vsnprintf>
    af88:	00050793          	mv	a5,a0
    af8c:	00078513          	mv	a0,a5
    af90:	02c12083          	lw	ra,44(sp)
    af94:	02812403          	lw	s0,40(sp)
    af98:	03010113          	addi	sp,sp,48
    af9c:	00008067          	ret

0000afa0 <vsnprintf_>:
    afa0:	fe010113          	addi	sp,sp,-32
    afa4:	00112e23          	sw	ra,28(sp)
    afa8:	00812c23          	sw	s0,24(sp)
    afac:	02010413          	addi	s0,sp,32
    afb0:	fea42623          	sw	a0,-20(s0)
    afb4:	feb42423          	sw	a1,-24(s0)
    afb8:	fec42223          	sw	a2,-28(s0)
    afbc:	fed42023          	sw	a3,-32(s0)
    afc0:	fe042703          	lw	a4,-32(s0)
    afc4:	fe442683          	lw	a3,-28(s0)
    afc8:	fe842603          	lw	a2,-24(s0)
    afcc:	fec42583          	lw	a1,-20(s0)
    afd0:	000087b7          	lui	a5,0x8
    afd4:	6a078513          	addi	a0,a5,1696 # 86a0 <_out_buffer>
    afd8:	fd5fe0ef          	jal	ra,9fac <_vsnprintf>
    afdc:	00050793          	mv	a5,a0
    afe0:	00078513          	mv	a0,a5
    afe4:	01c12083          	lw	ra,28(sp)
    afe8:	01812403          	lw	s0,24(sp)
    afec:	02010113          	addi	sp,sp,32
    aff0:	00008067          	ret

0000aff4 <fctprintf>:
    aff4:	fb010113          	addi	sp,sp,-80
    aff8:	02112623          	sw	ra,44(sp)
    affc:	02812423          	sw	s0,40(sp)
    b000:	03010413          	addi	s0,sp,48
    b004:	fca42e23          	sw	a0,-36(s0)
    b008:	fcb42c23          	sw	a1,-40(s0)
    b00c:	fcc42a23          	sw	a2,-44(s0)
    b010:	00d42623          	sw	a3,12(s0)
    b014:	00e42823          	sw	a4,16(s0)
    b018:	00f42a23          	sw	a5,20(s0)
    b01c:	01042c23          	sw	a6,24(s0)
    b020:	01142e23          	sw	a7,28(s0)
    b024:	02040793          	addi	a5,s0,32
    b028:	fcf42823          	sw	a5,-48(s0)
    b02c:	fd042783          	lw	a5,-48(s0)
    b030:	fec78793          	addi	a5,a5,-20
    b034:	fef42423          	sw	a5,-24(s0)
    b038:	fdc42783          	lw	a5,-36(s0)
    b03c:	fef42023          	sw	a5,-32(s0)
    b040:	fd842783          	lw	a5,-40(s0)
    b044:	fef42223          	sw	a5,-28(s0)
    b048:	fe842703          	lw	a4,-24(s0)
    b04c:	fe040793          	addi	a5,s0,-32
    b050:	fd442683          	lw	a3,-44(s0)
    b054:	fff00613          	li	a2,-1
    b058:	00078593          	mv	a1,a5
    b05c:	000087b7          	lui	a5,0x8
    b060:	76c78513          	addi	a0,a5,1900 # 876c <_out_fct>
    b064:	f49fe0ef          	jal	ra,9fac <_vsnprintf>
    b068:	fea42623          	sw	a0,-20(s0)
    b06c:	fec42783          	lw	a5,-20(s0)
    b070:	00078513          	mv	a0,a5
    b074:	02c12083          	lw	ra,44(sp)
    b078:	02812403          	lw	s0,40(sp)
    b07c:	05010113          	addi	sp,sp,80
    b080:	00008067          	ret

0000b084 <XUartLite_SendByte>:
    b084:	fe010113          	addi	sp,sp,-32
    b088:	00112e23          	sw	ra,28(sp)
    b08c:	00812c23          	sw	s0,24(sp)
    b090:	02010413          	addi	s0,sp,32
    b094:	fea42623          	sw	a0,-20(s0)
    b098:	feb42423          	sw	a1,-24(s0)
    b09c:	00000013          	nop
    b0a0:	fec42783          	lw	a5,-20(s0)
    b0a4:	00878793          	addi	a5,a5,8
    b0a8:	00078513          	mv	a0,a5
    b0ac:	03c000ef          	jal	ra,b0e8 <Xil_In32>
    b0b0:	00050793          	mv	a5,a0
    b0b4:	0087f713          	andi	a4,a5,8
    b0b8:	00800793          	li	a5,8
    b0bc:	fef702e3          	beq	a4,a5,b0a0 <XUartLite_SendByte+0x1c>
    b0c0:	fec42783          	lw	a5,-20(s0)
    b0c4:	00478793          	addi	a5,a5,4
    b0c8:	fe842583          	lw	a1,-24(s0)
    b0cc:	00078513          	mv	a0,a5
    b0d0:	040000ef          	jal	ra,b110 <Xil_Out32>
    b0d4:	00000013          	nop
    b0d8:	01c12083          	lw	ra,28(sp)
    b0dc:	01812403          	lw	s0,24(sp)
    b0e0:	02010113          	addi	sp,sp,32
    b0e4:	00008067          	ret

0000b0e8 <Xil_In32>:
    b0e8:	fe010113          	addi	sp,sp,-32
    b0ec:	00812e23          	sw	s0,28(sp)
    b0f0:	02010413          	addi	s0,sp,32
    b0f4:	fea42623          	sw	a0,-20(s0)
    b0f8:	fec42783          	lw	a5,-20(s0)
    b0fc:	0007a783          	lw	a5,0(a5)
    b100:	00078513          	mv	a0,a5
    b104:	01c12403          	lw	s0,28(sp)
    b108:	02010113          	addi	sp,sp,32
    b10c:	00008067          	ret

0000b110 <Xil_Out32>:
    b110:	fd010113          	addi	sp,sp,-48
    b114:	02812623          	sw	s0,44(sp)
    b118:	03010413          	addi	s0,sp,48
    b11c:	fca42e23          	sw	a0,-36(s0)
    b120:	fcb42c23          	sw	a1,-40(s0)
    b124:	fdc42783          	lw	a5,-36(s0)
    b128:	fef42623          	sw	a5,-20(s0)
    b12c:	fec42783          	lw	a5,-20(s0)
    b130:	fd842703          	lw	a4,-40(s0)
    b134:	00e7a023          	sw	a4,0(a5)
    b138:	00000013          	nop
    b13c:	02c12403          	lw	s0,44(sp)
    b140:	03010113          	addi	sp,sp,48
    b144:	00008067          	ret

0000b148 <_putchar>:
    b148:	fe010113          	addi	sp,sp,-32
    b14c:	00112e23          	sw	ra,28(sp)
    b150:	00812c23          	sw	s0,24(sp)
    b154:	02010413          	addi	s0,sp,32
    b158:	00050793          	mv	a5,a0
    b15c:	fef407a3          	sb	a5,-17(s0)
    b160:	fef44783          	lbu	a5,-17(s0)
    b164:	00078593          	mv	a1,a5
    b168:	00048537          	lui	a0,0x48
    b16c:	f19ff0ef          	jal	ra,b084 <XUartLite_SendByte>
    b170:	00000013          	nop
    b174:	01c12083          	lw	ra,28(sp)
    b178:	01812403          	lw	s0,24(sp)
    b17c:	02010113          	addi	sp,sp,32
    b180:	00008067          	ret

0000b184 <init_genrand>:
    b184:	fe010113          	addi	sp,sp,-32
    b188:	00812e23          	sw	s0,28(sp)
    b18c:	02010413          	addi	s0,sp,32
    b190:	fea42623          	sw	a0,-20(s0)
    b194:	000297b7          	lui	a5,0x29
    b198:	8c078793          	addi	a5,a5,-1856 # 288c0 <mt>
    b19c:	fec42703          	lw	a4,-20(s0)
    b1a0:	00e7a023          	sw	a4,0(a5)
    b1a4:	000297b7          	lui	a5,0x29
    b1a8:	00100713          	li	a4,1
    b1ac:	8ae7a823          	sw	a4,-1872(a5) # 288b0 <mti>
    b1b0:	0d00006f          	j	b280 <init_genrand+0xfc>
    b1b4:	000297b7          	lui	a5,0x29
    b1b8:	8b07a783          	lw	a5,-1872(a5) # 288b0 <mti>
    b1bc:	fff78793          	addi	a5,a5,-1
    b1c0:	00029737          	lui	a4,0x29
    b1c4:	8c070713          	addi	a4,a4,-1856 # 288c0 <mt>
    b1c8:	00279793          	slli	a5,a5,0x2
    b1cc:	00f707b3          	add	a5,a4,a5
    b1d0:	0007a703          	lw	a4,0(a5)
    b1d4:	000297b7          	lui	a5,0x29
    b1d8:	8b07a783          	lw	a5,-1872(a5) # 288b0 <mti>
    b1dc:	fff78793          	addi	a5,a5,-1
    b1e0:	000296b7          	lui	a3,0x29
    b1e4:	8c068693          	addi	a3,a3,-1856 # 288c0 <mt>
    b1e8:	00279793          	slli	a5,a5,0x2
    b1ec:	00f687b3          	add	a5,a3,a5
    b1f0:	0007a783          	lw	a5,0(a5)
    b1f4:	01e7d793          	srli	a5,a5,0x1e
    b1f8:	00f74733          	xor	a4,a4,a5
    b1fc:	6c0797b7          	lui	a5,0x6c079
    b200:	96578793          	addi	a5,a5,-1691 # 6c078965 <__heap_end+0x6c030965>
    b204:	02f70733          	mul	a4,a4,a5
    b208:	000297b7          	lui	a5,0x29
    b20c:	8b07a783          	lw	a5,-1872(a5) # 288b0 <mti>
    b210:	00078693          	mv	a3,a5
    b214:	000297b7          	lui	a5,0x29
    b218:	8b07a783          	lw	a5,-1872(a5) # 288b0 <mti>
    b21c:	00d70733          	add	a4,a4,a3
    b220:	000296b7          	lui	a3,0x29
    b224:	8c068693          	addi	a3,a3,-1856 # 288c0 <mt>
    b228:	00279793          	slli	a5,a5,0x2
    b22c:	00f687b3          	add	a5,a3,a5
    b230:	00e7a023          	sw	a4,0(a5)
    b234:	000297b7          	lui	a5,0x29
    b238:	8b07a703          	lw	a4,-1872(a5) # 288b0 <mti>
    b23c:	000297b7          	lui	a5,0x29
    b240:	8b07a783          	lw	a5,-1872(a5) # 288b0 <mti>
    b244:	000296b7          	lui	a3,0x29
    b248:	8c068693          	addi	a3,a3,-1856 # 288c0 <mt>
    b24c:	00271713          	slli	a4,a4,0x2
    b250:	00e68733          	add	a4,a3,a4
    b254:	00072703          	lw	a4,0(a4)
    b258:	000296b7          	lui	a3,0x29
    b25c:	8c068693          	addi	a3,a3,-1856 # 288c0 <mt>
    b260:	00279793          	slli	a5,a5,0x2
    b264:	00f687b3          	add	a5,a3,a5
    b268:	00e7a023          	sw	a4,0(a5)
    b26c:	000297b7          	lui	a5,0x29
    b270:	8b07a783          	lw	a5,-1872(a5) # 288b0 <mti>
    b274:	00178713          	addi	a4,a5,1
    b278:	000297b7          	lui	a5,0x29
    b27c:	8ae7a823          	sw	a4,-1872(a5) # 288b0 <mti>
    b280:	000297b7          	lui	a5,0x29
    b284:	8b07a703          	lw	a4,-1872(a5) # 288b0 <mti>
    b288:	26f00793          	li	a5,623
    b28c:	f2e7d4e3          	bge	a5,a4,b1b4 <init_genrand+0x30>
    b290:	00000013          	nop
    b294:	00000013          	nop
    b298:	01c12403          	lw	s0,28(sp)
    b29c:	02010113          	addi	sp,sp,32
    b2a0:	00008067          	ret

0000b2a4 <init_by_array>:
    b2a4:	fd010113          	addi	sp,sp,-48
    b2a8:	02112623          	sw	ra,44(sp)
    b2ac:	02812423          	sw	s0,40(sp)
    b2b0:	03010413          	addi	s0,sp,48
    b2b4:	fca42e23          	sw	a0,-36(s0)
    b2b8:	fcb42c23          	sw	a1,-40(s0)
    b2bc:	012bd7b7          	lui	a5,0x12bd
    b2c0:	6aa78513          	addi	a0,a5,1706 # 12bd6aa <__heap_end+0x12756aa>
    b2c4:	ec1ff0ef          	jal	ra,b184 <init_genrand>
    b2c8:	00100793          	li	a5,1
    b2cc:	fef42623          	sw	a5,-20(s0)
    b2d0:	fe042423          	sw	zero,-24(s0)
    b2d4:	fd842783          	lw	a5,-40(s0)
    b2d8:	27000713          	li	a4,624
    b2dc:	00e7d463          	bge	a5,a4,b2e4 <init_by_array+0x40>
    b2e0:	27000793          	li	a5,624
    b2e4:	fef42223          	sw	a5,-28(s0)
    b2e8:	13c0006f          	j	b424 <init_by_array+0x180>
    b2ec:	000297b7          	lui	a5,0x29
    b2f0:	8c078713          	addi	a4,a5,-1856 # 288c0 <mt>
    b2f4:	fec42783          	lw	a5,-20(s0)
    b2f8:	00279793          	slli	a5,a5,0x2
    b2fc:	00f707b3          	add	a5,a4,a5
    b300:	0007a703          	lw	a4,0(a5)
    b304:	fec42783          	lw	a5,-20(s0)
    b308:	fff78793          	addi	a5,a5,-1
    b30c:	000296b7          	lui	a3,0x29
    b310:	8c068693          	addi	a3,a3,-1856 # 288c0 <mt>
    b314:	00279793          	slli	a5,a5,0x2
    b318:	00f687b3          	add	a5,a3,a5
    b31c:	0007a683          	lw	a3,0(a5)
    b320:	fec42783          	lw	a5,-20(s0)
    b324:	fff78793          	addi	a5,a5,-1
    b328:	00029637          	lui	a2,0x29
    b32c:	8c060613          	addi	a2,a2,-1856 # 288c0 <mt>
    b330:	00279793          	slli	a5,a5,0x2
    b334:	00f607b3          	add	a5,a2,a5
    b338:	0007a783          	lw	a5,0(a5)
    b33c:	01e7d793          	srli	a5,a5,0x1e
    b340:	00f6c6b3          	xor	a3,a3,a5
    b344:	001967b7          	lui	a5,0x196
    b348:	60d78793          	addi	a5,a5,1549 # 19660d <__heap_end+0x14e60d>
    b34c:	02f687b3          	mul	a5,a3,a5
    b350:	00f74733          	xor	a4,a4,a5
    b354:	fe842783          	lw	a5,-24(s0)
    b358:	00279793          	slli	a5,a5,0x2
    b35c:	fdc42683          	lw	a3,-36(s0)
    b360:	00f687b3          	add	a5,a3,a5
    b364:	0007a783          	lw	a5,0(a5)
    b368:	00f70733          	add	a4,a4,a5
    b36c:	fe842783          	lw	a5,-24(s0)
    b370:	00f70733          	add	a4,a4,a5
    b374:	000297b7          	lui	a5,0x29
    b378:	8c078693          	addi	a3,a5,-1856 # 288c0 <mt>
    b37c:	fec42783          	lw	a5,-20(s0)
    b380:	00279793          	slli	a5,a5,0x2
    b384:	00f687b3          	add	a5,a3,a5
    b388:	00e7a023          	sw	a4,0(a5)
    b38c:	000297b7          	lui	a5,0x29
    b390:	8c078713          	addi	a4,a5,-1856 # 288c0 <mt>
    b394:	fec42783          	lw	a5,-20(s0)
    b398:	00279793          	slli	a5,a5,0x2
    b39c:	00f707b3          	add	a5,a4,a5
    b3a0:	0007a703          	lw	a4,0(a5)
    b3a4:	000297b7          	lui	a5,0x29
    b3a8:	8c078693          	addi	a3,a5,-1856 # 288c0 <mt>
    b3ac:	fec42783          	lw	a5,-20(s0)
    b3b0:	00279793          	slli	a5,a5,0x2
    b3b4:	00f687b3          	add	a5,a3,a5
    b3b8:	00e7a023          	sw	a4,0(a5)
    b3bc:	fec42783          	lw	a5,-20(s0)
    b3c0:	00178793          	addi	a5,a5,1
    b3c4:	fef42623          	sw	a5,-20(s0)
    b3c8:	fe842783          	lw	a5,-24(s0)
    b3cc:	00178793          	addi	a5,a5,1
    b3d0:	fef42423          	sw	a5,-24(s0)
    b3d4:	fec42703          	lw	a4,-20(s0)
    b3d8:	26f00793          	li	a5,623
    b3dc:	02e7d663          	bge	a5,a4,b408 <init_by_array+0x164>
    b3e0:	000297b7          	lui	a5,0x29
    b3e4:	8c078713          	addi	a4,a5,-1856 # 288c0 <mt>
    b3e8:	000017b7          	lui	a5,0x1
    b3ec:	00f707b3          	add	a5,a4,a5
    b3f0:	9bc7a703          	lw	a4,-1604(a5) # 9bc <_isr_vector-0x7644>
    b3f4:	000297b7          	lui	a5,0x29
    b3f8:	8c078793          	addi	a5,a5,-1856 # 288c0 <mt>
    b3fc:	00e7a023          	sw	a4,0(a5)
    b400:	00100793          	li	a5,1
    b404:	fef42623          	sw	a5,-20(s0)
    b408:	fe842703          	lw	a4,-24(s0)
    b40c:	fd842783          	lw	a5,-40(s0)
    b410:	00f74463          	blt	a4,a5,b418 <init_by_array+0x174>
    b414:	fe042423          	sw	zero,-24(s0)
    b418:	fe442783          	lw	a5,-28(s0)
    b41c:	fff78793          	addi	a5,a5,-1
    b420:	fef42223          	sw	a5,-28(s0)
    b424:	fe442783          	lw	a5,-28(s0)
    b428:	ec0792e3          	bnez	a5,b2ec <init_by_array+0x48>
    b42c:	26f00793          	li	a5,623
    b430:	fef42223          	sw	a5,-28(s0)
    b434:	1080006f          	j	b53c <init_by_array+0x298>
    b438:	000297b7          	lui	a5,0x29
    b43c:	8c078713          	addi	a4,a5,-1856 # 288c0 <mt>
    b440:	fec42783          	lw	a5,-20(s0)
    b444:	00279793          	slli	a5,a5,0x2
    b448:	00f707b3          	add	a5,a4,a5
    b44c:	0007a703          	lw	a4,0(a5)
    b450:	fec42783          	lw	a5,-20(s0)
    b454:	fff78793          	addi	a5,a5,-1
    b458:	000296b7          	lui	a3,0x29
    b45c:	8c068693          	addi	a3,a3,-1856 # 288c0 <mt>
    b460:	00279793          	slli	a5,a5,0x2
    b464:	00f687b3          	add	a5,a3,a5
    b468:	0007a683          	lw	a3,0(a5)
    b46c:	fec42783          	lw	a5,-20(s0)
    b470:	fff78793          	addi	a5,a5,-1
    b474:	00029637          	lui	a2,0x29
    b478:	8c060613          	addi	a2,a2,-1856 # 288c0 <mt>
    b47c:	00279793          	slli	a5,a5,0x2
    b480:	00f607b3          	add	a5,a2,a5
    b484:	0007a783          	lw	a5,0(a5)
    b488:	01e7d793          	srli	a5,a5,0x1e
    b48c:	00f6c6b3          	xor	a3,a3,a5
    b490:	5d5897b7          	lui	a5,0x5d589
    b494:	b6578793          	addi	a5,a5,-1179 # 5d588b65 <__heap_end+0x5d540b65>
    b498:	02f687b3          	mul	a5,a3,a5
    b49c:	00f74733          	xor	a4,a4,a5
    b4a0:	fec42783          	lw	a5,-20(s0)
    b4a4:	40f70733          	sub	a4,a4,a5
    b4a8:	000297b7          	lui	a5,0x29
    b4ac:	8c078693          	addi	a3,a5,-1856 # 288c0 <mt>
    b4b0:	fec42783          	lw	a5,-20(s0)
    b4b4:	00279793          	slli	a5,a5,0x2
    b4b8:	00f687b3          	add	a5,a3,a5
    b4bc:	00e7a023          	sw	a4,0(a5)
    b4c0:	000297b7          	lui	a5,0x29
    b4c4:	8c078713          	addi	a4,a5,-1856 # 288c0 <mt>
    b4c8:	fec42783          	lw	a5,-20(s0)
    b4cc:	00279793          	slli	a5,a5,0x2
    b4d0:	00f707b3          	add	a5,a4,a5
    b4d4:	0007a703          	lw	a4,0(a5)
    b4d8:	000297b7          	lui	a5,0x29
    b4dc:	8c078693          	addi	a3,a5,-1856 # 288c0 <mt>
    b4e0:	fec42783          	lw	a5,-20(s0)
    b4e4:	00279793          	slli	a5,a5,0x2
    b4e8:	00f687b3          	add	a5,a3,a5
    b4ec:	00e7a023          	sw	a4,0(a5)
    b4f0:	fec42783          	lw	a5,-20(s0)
    b4f4:	00178793          	addi	a5,a5,1
    b4f8:	fef42623          	sw	a5,-20(s0)
    b4fc:	fec42703          	lw	a4,-20(s0)
    b500:	26f00793          	li	a5,623
    b504:	02e7d663          	bge	a5,a4,b530 <init_by_array+0x28c>
    b508:	000297b7          	lui	a5,0x29
    b50c:	8c078713          	addi	a4,a5,-1856 # 288c0 <mt>
    b510:	000017b7          	lui	a5,0x1
    b514:	00f707b3          	add	a5,a4,a5
    b518:	9bc7a703          	lw	a4,-1604(a5) # 9bc <_isr_vector-0x7644>
    b51c:	000297b7          	lui	a5,0x29
    b520:	8c078793          	addi	a5,a5,-1856 # 288c0 <mt>
    b524:	00e7a023          	sw	a4,0(a5)
    b528:	00100793          	li	a5,1
    b52c:	fef42623          	sw	a5,-20(s0)
    b530:	fe442783          	lw	a5,-28(s0)
    b534:	fff78793          	addi	a5,a5,-1
    b538:	fef42223          	sw	a5,-28(s0)
    b53c:	fe442783          	lw	a5,-28(s0)
    b540:	ee079ce3          	bnez	a5,b438 <init_by_array+0x194>
    b544:	000297b7          	lui	a5,0x29
    b548:	8c078793          	addi	a5,a5,-1856 # 288c0 <mt>
    b54c:	80000737          	lui	a4,0x80000
    b550:	00e7a023          	sw	a4,0(a5)
    b554:	00000013          	nop
    b558:	02c12083          	lw	ra,44(sp)
    b55c:	02812403          	lw	s0,40(sp)
    b560:	03010113          	addi	sp,sp,48
    b564:	00008067          	ret

0000b568 <genrand_int32>:
    b568:	fe010113          	addi	sp,sp,-32
    b56c:	00112e23          	sw	ra,28(sp)
    b570:	00812c23          	sw	s0,24(sp)
    b574:	02010413          	addi	s0,sp,32
    b578:	000297b7          	lui	a5,0x29
    b57c:	8b07a703          	lw	a4,-1872(a5) # 288b0 <mti>
    b580:	26f00793          	li	a5,623
    b584:	24e7d663          	bge	a5,a4,b7d0 <genrand_int32+0x268>
    b588:	000297b7          	lui	a5,0x29
    b58c:	8b07a703          	lw	a4,-1872(a5) # 288b0 <mti>
    b590:	27100793          	li	a5,625
    b594:	00f71863          	bne	a4,a5,b5a4 <genrand_int32+0x3c>
    b598:	000017b7          	lui	a5,0x1
    b59c:	57178513          	addi	a0,a5,1393 # 1571 <_isr_vector-0x6a8f>
    b5a0:	be5ff0ef          	jal	ra,b184 <init_genrand>
    b5a4:	fe042623          	sw	zero,-20(s0)
    b5a8:	0c00006f          	j	b668 <genrand_int32+0x100>
    b5ac:	000297b7          	lui	a5,0x29
    b5b0:	8c078713          	addi	a4,a5,-1856 # 288c0 <mt>
    b5b4:	fec42783          	lw	a5,-20(s0)
    b5b8:	00279793          	slli	a5,a5,0x2
    b5bc:	00f707b3          	add	a5,a4,a5
    b5c0:	0007a703          	lw	a4,0(a5)
    b5c4:	800007b7          	lui	a5,0x80000
    b5c8:	00f77733          	and	a4,a4,a5
    b5cc:	fec42783          	lw	a5,-20(s0)
    b5d0:	00178793          	addi	a5,a5,1 # 80000001 <__heap_end+0x7ffb8001>
    b5d4:	000296b7          	lui	a3,0x29
    b5d8:	8c068693          	addi	a3,a3,-1856 # 288c0 <mt>
    b5dc:	00279793          	slli	a5,a5,0x2
    b5e0:	00f687b3          	add	a5,a3,a5
    b5e4:	0007a683          	lw	a3,0(a5)
    b5e8:	800007b7          	lui	a5,0x80000
    b5ec:	fff7c793          	not	a5,a5
    b5f0:	00f6f7b3          	and	a5,a3,a5
    b5f4:	00f767b3          	or	a5,a4,a5
    b5f8:	fef42423          	sw	a5,-24(s0)
    b5fc:	fec42783          	lw	a5,-20(s0)
    b600:	18d78793          	addi	a5,a5,397 # 8000018d <__heap_end+0x7ffb818d>
    b604:	00029737          	lui	a4,0x29
    b608:	8c070713          	addi	a4,a4,-1856 # 288c0 <mt>
    b60c:	00279793          	slli	a5,a5,0x2
    b610:	00f707b3          	add	a5,a4,a5
    b614:	0007a703          	lw	a4,0(a5)
    b618:	fe842783          	lw	a5,-24(s0)
    b61c:	0017d793          	srli	a5,a5,0x1
    b620:	00f74733          	xor	a4,a4,a5
    b624:	fe842783          	lw	a5,-24(s0)
    b628:	0017f793          	andi	a5,a5,1
    b62c:	000296b7          	lui	a3,0x29
    b630:	8b468693          	addi	a3,a3,-1868 # 288b4 <mag01.0>
    b634:	00279793          	slli	a5,a5,0x2
    b638:	00f687b3          	add	a5,a3,a5
    b63c:	0007a783          	lw	a5,0(a5)
    b640:	00f74733          	xor	a4,a4,a5
    b644:	000297b7          	lui	a5,0x29
    b648:	8c078693          	addi	a3,a5,-1856 # 288c0 <mt>
    b64c:	fec42783          	lw	a5,-20(s0)
    b650:	00279793          	slli	a5,a5,0x2
    b654:	00f687b3          	add	a5,a3,a5
    b658:	00e7a023          	sw	a4,0(a5)
    b65c:	fec42783          	lw	a5,-20(s0)
    b660:	00178793          	addi	a5,a5,1
    b664:	fef42623          	sw	a5,-20(s0)
    b668:	fec42703          	lw	a4,-20(s0)
    b66c:	0e200793          	li	a5,226
    b670:	f2e7dee3          	bge	a5,a4,b5ac <genrand_int32+0x44>
    b674:	0c00006f          	j	b734 <genrand_int32+0x1cc>
    b678:	000297b7          	lui	a5,0x29
    b67c:	8c078713          	addi	a4,a5,-1856 # 288c0 <mt>
    b680:	fec42783          	lw	a5,-20(s0)
    b684:	00279793          	slli	a5,a5,0x2
    b688:	00f707b3          	add	a5,a4,a5
    b68c:	0007a703          	lw	a4,0(a5)
    b690:	800007b7          	lui	a5,0x80000
    b694:	00f77733          	and	a4,a4,a5
    b698:	fec42783          	lw	a5,-20(s0)
    b69c:	00178793          	addi	a5,a5,1 # 80000001 <__heap_end+0x7ffb8001>
    b6a0:	000296b7          	lui	a3,0x29
    b6a4:	8c068693          	addi	a3,a3,-1856 # 288c0 <mt>
    b6a8:	00279793          	slli	a5,a5,0x2
    b6ac:	00f687b3          	add	a5,a3,a5
    b6b0:	0007a683          	lw	a3,0(a5)
    b6b4:	800007b7          	lui	a5,0x80000
    b6b8:	fff7c793          	not	a5,a5
    b6bc:	00f6f7b3          	and	a5,a3,a5
    b6c0:	00f767b3          	or	a5,a4,a5
    b6c4:	fef42423          	sw	a5,-24(s0)
    b6c8:	fec42783          	lw	a5,-20(s0)
    b6cc:	f1d78793          	addi	a5,a5,-227 # 7fffff1d <__heap_end+0x7ffb7f1d>
    b6d0:	00029737          	lui	a4,0x29
    b6d4:	8c070713          	addi	a4,a4,-1856 # 288c0 <mt>
    b6d8:	00279793          	slli	a5,a5,0x2
    b6dc:	00f707b3          	add	a5,a4,a5
    b6e0:	0007a703          	lw	a4,0(a5)
    b6e4:	fe842783          	lw	a5,-24(s0)
    b6e8:	0017d793          	srli	a5,a5,0x1
    b6ec:	00f74733          	xor	a4,a4,a5
    b6f0:	fe842783          	lw	a5,-24(s0)
    b6f4:	0017f793          	andi	a5,a5,1
    b6f8:	000296b7          	lui	a3,0x29
    b6fc:	8b468693          	addi	a3,a3,-1868 # 288b4 <mag01.0>
    b700:	00279793          	slli	a5,a5,0x2
    b704:	00f687b3          	add	a5,a3,a5
    b708:	0007a783          	lw	a5,0(a5)
    b70c:	00f74733          	xor	a4,a4,a5
    b710:	000297b7          	lui	a5,0x29
    b714:	8c078693          	addi	a3,a5,-1856 # 288c0 <mt>
    b718:	fec42783          	lw	a5,-20(s0)
    b71c:	00279793          	slli	a5,a5,0x2
    b720:	00f687b3          	add	a5,a3,a5
    b724:	00e7a023          	sw	a4,0(a5)
    b728:	fec42783          	lw	a5,-20(s0)
    b72c:	00178793          	addi	a5,a5,1
    b730:	fef42623          	sw	a5,-20(s0)
    b734:	fec42703          	lw	a4,-20(s0)
    b738:	26e00793          	li	a5,622
    b73c:	f2e7dee3          	bge	a5,a4,b678 <genrand_int32+0x110>
    b740:	000297b7          	lui	a5,0x29
    b744:	8c078713          	addi	a4,a5,-1856 # 288c0 <mt>
    b748:	000017b7          	lui	a5,0x1
    b74c:	00f707b3          	add	a5,a4,a5
    b750:	9bc7a703          	lw	a4,-1604(a5) # 9bc <_isr_vector-0x7644>
    b754:	800007b7          	lui	a5,0x80000
    b758:	00f77733          	and	a4,a4,a5
    b75c:	000297b7          	lui	a5,0x29
    b760:	8c078793          	addi	a5,a5,-1856 # 288c0 <mt>
    b764:	0007a683          	lw	a3,0(a5)
    b768:	800007b7          	lui	a5,0x80000
    b76c:	fff7c793          	not	a5,a5
    b770:	00f6f7b3          	and	a5,a3,a5
    b774:	00f767b3          	or	a5,a4,a5
    b778:	fef42423          	sw	a5,-24(s0)
    b77c:	000297b7          	lui	a5,0x29
    b780:	8c078793          	addi	a5,a5,-1856 # 288c0 <mt>
    b784:	6307a703          	lw	a4,1584(a5)
    b788:	fe842783          	lw	a5,-24(s0)
    b78c:	0017d793          	srli	a5,a5,0x1
    b790:	00f74733          	xor	a4,a4,a5
    b794:	fe842783          	lw	a5,-24(s0)
    b798:	0017f793          	andi	a5,a5,1
    b79c:	000296b7          	lui	a3,0x29
    b7a0:	8b468693          	addi	a3,a3,-1868 # 288b4 <mag01.0>
    b7a4:	00279793          	slli	a5,a5,0x2
    b7a8:	00f687b3          	add	a5,a3,a5
    b7ac:	0007a783          	lw	a5,0(a5)
    b7b0:	00f74733          	xor	a4,a4,a5
    b7b4:	000297b7          	lui	a5,0x29
    b7b8:	8c078693          	addi	a3,a5,-1856 # 288c0 <mt>
    b7bc:	000017b7          	lui	a5,0x1
    b7c0:	00f687b3          	add	a5,a3,a5
    b7c4:	9ae7ae23          	sw	a4,-1604(a5) # 9bc <_isr_vector-0x7644>
    b7c8:	000297b7          	lui	a5,0x29
    b7cc:	8a07a823          	sw	zero,-1872(a5) # 288b0 <mti>
    b7d0:	000297b7          	lui	a5,0x29
    b7d4:	8b07a783          	lw	a5,-1872(a5) # 288b0 <mti>
    b7d8:	00178693          	addi	a3,a5,1
    b7dc:	00029737          	lui	a4,0x29
    b7e0:	8ad72823          	sw	a3,-1872(a4) # 288b0 <mti>
    b7e4:	00029737          	lui	a4,0x29
    b7e8:	8c070713          	addi	a4,a4,-1856 # 288c0 <mt>
    b7ec:	00279793          	slli	a5,a5,0x2
    b7f0:	00f707b3          	add	a5,a4,a5
    b7f4:	0007a783          	lw	a5,0(a5)
    b7f8:	fef42423          	sw	a5,-24(s0)
    b7fc:	fe842783          	lw	a5,-24(s0)
    b800:	00b7d793          	srli	a5,a5,0xb
    b804:	fe842703          	lw	a4,-24(s0)
    b808:	00f747b3          	xor	a5,a4,a5
    b80c:	fef42423          	sw	a5,-24(s0)
    b810:	fe842783          	lw	a5,-24(s0)
    b814:	00779713          	slli	a4,a5,0x7
    b818:	9d2c57b7          	lui	a5,0x9d2c5
    b81c:	68078793          	addi	a5,a5,1664 # 9d2c5680 <__heap_end+0x9d27d680>
    b820:	00f777b3          	and	a5,a4,a5
    b824:	fe842703          	lw	a4,-24(s0)
    b828:	00f747b3          	xor	a5,a4,a5
    b82c:	fef42423          	sw	a5,-24(s0)
    b830:	fe842783          	lw	a5,-24(s0)
    b834:	00f79713          	slli	a4,a5,0xf
    b838:	efc607b7          	lui	a5,0xefc60
    b83c:	00f777b3          	and	a5,a4,a5
    b840:	fe842703          	lw	a4,-24(s0)
    b844:	00f747b3          	xor	a5,a4,a5
    b848:	fef42423          	sw	a5,-24(s0)
    b84c:	fe842783          	lw	a5,-24(s0)
    b850:	0127d793          	srli	a5,a5,0x12
    b854:	fe842703          	lw	a4,-24(s0)
    b858:	00f747b3          	xor	a5,a4,a5
    b85c:	fef42423          	sw	a5,-24(s0)
    b860:	fe842783          	lw	a5,-24(s0)
    b864:	00078513          	mv	a0,a5
    b868:	01c12083          	lw	ra,28(sp)
    b86c:	01812403          	lw	s0,24(sp)
    b870:	02010113          	addi	sp,sp,32
    b874:	00008067          	ret

0000b878 <genrand_int31>:
    b878:	ff010113          	addi	sp,sp,-16
    b87c:	00112623          	sw	ra,12(sp)
    b880:	00812423          	sw	s0,8(sp)
    b884:	01010413          	addi	s0,sp,16
    b888:	ce1ff0ef          	jal	ra,b568 <genrand_int32>
    b88c:	00050793          	mv	a5,a0
    b890:	0017d793          	srli	a5,a5,0x1
    b894:	00078513          	mv	a0,a5
    b898:	00c12083          	lw	ra,12(sp)
    b89c:	00812403          	lw	s0,8(sp)
    b8a0:	01010113          	addi	sp,sp,16
    b8a4:	00008067          	ret

0000b8a8 <genrand_real1>:
    b8a8:	ff010113          	addi	sp,sp,-16
    b8ac:	00112623          	sw	ra,12(sp)
    b8b0:	00812423          	sw	s0,8(sp)
    b8b4:	01010413          	addi	s0,sp,16
    b8b8:	cb1ff0ef          	jal	ra,b568 <genrand_int32>
    b8bc:	00050793          	mv	a5,a0
    b8c0:	00078513          	mv	a0,a5
    b8c4:	301020ef          	jal	ra,e3c4 <__floatunsidf>
    b8c8:	00050713          	mv	a4,a0
    b8cc:	00058793          	mv	a5,a1
    b8d0:	000286b7          	lui	a3,0x28
    b8d4:	2d86a603          	lw	a2,728(a3) # 282d8 <pow10.0+0xe8>
    b8d8:	2dc6a683          	lw	a3,732(a3)
    b8dc:	00070513          	mv	a0,a4
    b8e0:	00078593          	mv	a1,a5
    b8e4:	341010ef          	jal	ra,d424 <__muldf3>
    b8e8:	00050713          	mv	a4,a0
    b8ec:	00058793          	mv	a5,a1
    b8f0:	00070513          	mv	a0,a4
    b8f4:	00078593          	mv	a1,a5
    b8f8:	00c12083          	lw	ra,12(sp)
    b8fc:	00812403          	lw	s0,8(sp)
    b900:	01010113          	addi	sp,sp,16
    b904:	00008067          	ret

0000b908 <genrand_real2>:
    b908:	ff010113          	addi	sp,sp,-16
    b90c:	00112623          	sw	ra,12(sp)
    b910:	00812423          	sw	s0,8(sp)
    b914:	01010413          	addi	s0,sp,16
    b918:	c51ff0ef          	jal	ra,b568 <genrand_int32>
    b91c:	00050793          	mv	a5,a0
    b920:	00078513          	mv	a0,a5
    b924:	2a1020ef          	jal	ra,e3c4 <__floatunsidf>
    b928:	00050713          	mv	a4,a0
    b92c:	00058793          	mv	a5,a1
    b930:	000286b7          	lui	a3,0x28
    b934:	2e06a603          	lw	a2,736(a3) # 282e0 <pow10.0+0xf0>
    b938:	2e46a683          	lw	a3,740(a3)
    b93c:	00070513          	mv	a0,a4
    b940:	00078593          	mv	a1,a5
    b944:	2e1010ef          	jal	ra,d424 <__muldf3>
    b948:	00050713          	mv	a4,a0
    b94c:	00058793          	mv	a5,a1
    b950:	00070513          	mv	a0,a4
    b954:	00078593          	mv	a1,a5
    b958:	00c12083          	lw	ra,12(sp)
    b95c:	00812403          	lw	s0,8(sp)
    b960:	01010113          	addi	sp,sp,16
    b964:	00008067          	ret

0000b968 <genrand_real3>:
    b968:	ff010113          	addi	sp,sp,-16
    b96c:	00112623          	sw	ra,12(sp)
    b970:	00812423          	sw	s0,8(sp)
    b974:	01010413          	addi	s0,sp,16
    b978:	bf1ff0ef          	jal	ra,b568 <genrand_int32>
    b97c:	00050793          	mv	a5,a0
    b980:	00078513          	mv	a0,a5
    b984:	241020ef          	jal	ra,e3c4 <__floatunsidf>
    b988:	00050713          	mv	a4,a0
    b98c:	00058793          	mv	a5,a1
    b990:	000286b7          	lui	a3,0x28
    b994:	2e86a603          	lw	a2,744(a3) # 282e8 <pow10.0+0xf8>
    b998:	2ec6a683          	lw	a3,748(a3)
    b99c:	00070513          	mv	a0,a4
    b9a0:	00078593          	mv	a1,a5
    b9a4:	175000ef          	jal	ra,c318 <__adddf3>
    b9a8:	00050713          	mv	a4,a0
    b9ac:	00058793          	mv	a5,a1
    b9b0:	00070513          	mv	a0,a4
    b9b4:	00078593          	mv	a1,a5
    b9b8:	000287b7          	lui	a5,0x28
    b9bc:	2e07a603          	lw	a2,736(a5) # 282e0 <pow10.0+0xf0>
    b9c0:	2e47a683          	lw	a3,740(a5)
    b9c4:	261010ef          	jal	ra,d424 <__muldf3>
    b9c8:	00050713          	mv	a4,a0
    b9cc:	00058793          	mv	a5,a1
    b9d0:	00070513          	mv	a0,a4
    b9d4:	00078593          	mv	a1,a5
    b9d8:	00c12083          	lw	ra,12(sp)
    b9dc:	00812403          	lw	s0,8(sp)
    b9e0:	01010113          	addi	sp,sp,16
    b9e4:	00008067          	ret

0000b9e8 <genrand_res53>:
    b9e8:	fe010113          	addi	sp,sp,-32
    b9ec:	00112e23          	sw	ra,28(sp)
    b9f0:	00812c23          	sw	s0,24(sp)
    b9f4:	01212a23          	sw	s2,20(sp)
    b9f8:	01312823          	sw	s3,16(sp)
    b9fc:	02010413          	addi	s0,sp,32
    ba00:	b69ff0ef          	jal	ra,b568 <genrand_int32>
    ba04:	00050793          	mv	a5,a0
    ba08:	0057d793          	srli	a5,a5,0x5
    ba0c:	fef42623          	sw	a5,-20(s0)
    ba10:	b59ff0ef          	jal	ra,b568 <genrand_int32>
    ba14:	00050793          	mv	a5,a0
    ba18:	0067d793          	srli	a5,a5,0x6
    ba1c:	fef42423          	sw	a5,-24(s0)
    ba20:	fec42503          	lw	a0,-20(s0)
    ba24:	1a1020ef          	jal	ra,e3c4 <__floatunsidf>
    ba28:	00050713          	mv	a4,a0
    ba2c:	00058793          	mv	a5,a1
    ba30:	000286b7          	lui	a3,0x28
    ba34:	2f06a603          	lw	a2,752(a3) # 282f0 <pow10.0+0x100>
    ba38:	2f46a683          	lw	a3,756(a3)
    ba3c:	00070513          	mv	a0,a4
    ba40:	00078593          	mv	a1,a5
    ba44:	1e1010ef          	jal	ra,d424 <__muldf3>
    ba48:	00050713          	mv	a4,a0
    ba4c:	00058793          	mv	a5,a1
    ba50:	00070913          	mv	s2,a4
    ba54:	00078993          	mv	s3,a5
    ba58:	fe842503          	lw	a0,-24(s0)
    ba5c:	169020ef          	jal	ra,e3c4 <__floatunsidf>
    ba60:	00050713          	mv	a4,a0
    ba64:	00058793          	mv	a5,a1
    ba68:	00070613          	mv	a2,a4
    ba6c:	00078693          	mv	a3,a5
    ba70:	00090513          	mv	a0,s2
    ba74:	00098593          	mv	a1,s3
    ba78:	0a1000ef          	jal	ra,c318 <__adddf3>
    ba7c:	00050713          	mv	a4,a0
    ba80:	00058793          	mv	a5,a1
    ba84:	00070513          	mv	a0,a4
    ba88:	00078593          	mv	a1,a5
    ba8c:	000287b7          	lui	a5,0x28
    ba90:	2f87a603          	lw	a2,760(a5) # 282f8 <pow10.0+0x108>
    ba94:	2fc7a683          	lw	a3,764(a5)
    ba98:	18d010ef          	jal	ra,d424 <__muldf3>
    ba9c:	00050713          	mv	a4,a0
    baa0:	00058793          	mv	a5,a1
    baa4:	00070513          	mv	a0,a4
    baa8:	00078593          	mv	a1,a5
    baac:	01c12083          	lw	ra,28(sp)
    bab0:	01812403          	lw	s0,24(sp)
    bab4:	01412903          	lw	s2,20(sp)
    bab8:	01012983          	lw	s3,16(sp)
    babc:	02010113          	addi	sp,sp,32
    bac0:	00008067          	ret

0000bac4 <reset_zero>:
    bac4:	fe010113          	addi	sp,sp,-32
    bac8:	00812e23          	sw	s0,28(sp)
    bacc:	02010413          	addi	s0,sp,32
    bad0:	00a00793          	li	a5,10
    bad4:	fef42623          	sw	a5,-20(s0)
    bad8:	01400793          	li	a5,20
    badc:	fef42423          	sw	a5,-24(s0)
    bae0:	fec42703          	lw	a4,-20(s0)
    bae4:	fe842783          	lw	a5,-24(s0)
    bae8:	00f707b3          	add	a5,a4,a5
    baec:	fef42223          	sw	a5,-28(s0)
    baf0:	fe442783          	lw	a5,-28(s0)
    baf4:	00078513          	mv	a0,a5
    baf8:	01c12403          	lw	s0,28(sp)
    bafc:	02010113          	addi	sp,sp,32
    bb00:	00008067          	ret

0000bb04 <__udivdi3>:
    bb04:	00050313          	mv	t1,a0
    bb08:	00058893          	mv	a7,a1
    bb0c:	00060713          	mv	a4,a2
    bb10:	00050813          	mv	a6,a0
    bb14:	00058793          	mv	a5,a1
    bb18:	28069263          	bnez	a3,bd9c <__udivdi3+0x298>
    bb1c:	000285b7          	lui	a1,0x28
    bb20:	33c58593          	addi	a1,a1,828 # 2833c <__clz_tab>
    bb24:	0ec8f663          	bgeu	a7,a2,bc10 <__udivdi3+0x10c>
    bb28:	000106b7          	lui	a3,0x10
    bb2c:	0cd67863          	bgeu	a2,a3,bbfc <__udivdi3+0xf8>
    bb30:	10063693          	sltiu	a3,a2,256
    bb34:	0016c693          	xori	a3,a3,1
    bb38:	00369693          	slli	a3,a3,0x3
    bb3c:	00d65533          	srl	a0,a2,a3
    bb40:	00a585b3          	add	a1,a1,a0
    bb44:	0005c583          	lbu	a1,0(a1)
    bb48:	02000513          	li	a0,32
    bb4c:	00d586b3          	add	a3,a1,a3
    bb50:	40d505b3          	sub	a1,a0,a3
    bb54:	00d50c63          	beq	a0,a3,bb6c <__udivdi3+0x68>
    bb58:	00b897b3          	sll	a5,a7,a1
    bb5c:	00d356b3          	srl	a3,t1,a3
    bb60:	00b61733          	sll	a4,a2,a1
    bb64:	00f6e7b3          	or	a5,a3,a5
    bb68:	00b31833          	sll	a6,t1,a1
    bb6c:	01075593          	srli	a1,a4,0x10
    bb70:	02b7d333          	divu	t1,a5,a1
    bb74:	01071613          	slli	a2,a4,0x10
    bb78:	01065613          	srli	a2,a2,0x10
    bb7c:	02b7f7b3          	remu	a5,a5,a1
    bb80:	00030513          	mv	a0,t1
    bb84:	026608b3          	mul	a7,a2,t1
    bb88:	01079693          	slli	a3,a5,0x10
    bb8c:	01085793          	srli	a5,a6,0x10
    bb90:	00d7e7b3          	or	a5,a5,a3
    bb94:	0117fe63          	bgeu	a5,a7,bbb0 <__udivdi3+0xac>
    bb98:	00e787b3          	add	a5,a5,a4
    bb9c:	fff30513          	addi	a0,t1,-1
    bba0:	00e7e863          	bltu	a5,a4,bbb0 <__udivdi3+0xac>
    bba4:	0117f663          	bgeu	a5,a7,bbb0 <__udivdi3+0xac>
    bba8:	ffe30513          	addi	a0,t1,-2
    bbac:	00e787b3          	add	a5,a5,a4
    bbb0:	411787b3          	sub	a5,a5,a7
    bbb4:	02b7d8b3          	divu	a7,a5,a1
    bbb8:	01081813          	slli	a6,a6,0x10
    bbbc:	01085813          	srli	a6,a6,0x10
    bbc0:	02b7f7b3          	remu	a5,a5,a1
    bbc4:	031606b3          	mul	a3,a2,a7
    bbc8:	01079793          	slli	a5,a5,0x10
    bbcc:	00f86833          	or	a6,a6,a5
    bbd0:	00088793          	mv	a5,a7
    bbd4:	00d87c63          	bgeu	a6,a3,bbec <__udivdi3+0xe8>
    bbd8:	01070833          	add	a6,a4,a6
    bbdc:	fff88793          	addi	a5,a7,-1
    bbe0:	00e86663          	bltu	a6,a4,bbec <__udivdi3+0xe8>
    bbe4:	00d87463          	bgeu	a6,a3,bbec <__udivdi3+0xe8>
    bbe8:	ffe88793          	addi	a5,a7,-2
    bbec:	01051513          	slli	a0,a0,0x10
    bbf0:	00f56533          	or	a0,a0,a5
    bbf4:	00000593          	li	a1,0
    bbf8:	00008067          	ret
    bbfc:	01000537          	lui	a0,0x1000
    bc00:	01000693          	li	a3,16
    bc04:	f2a66ce3          	bltu	a2,a0,bb3c <__udivdi3+0x38>
    bc08:	01800693          	li	a3,24
    bc0c:	f31ff06f          	j	bb3c <__udivdi3+0x38>
    bc10:	00061463          	bnez	a2,bc18 <__udivdi3+0x114>
    bc14:	00100073          	ebreak
    bc18:	000107b7          	lui	a5,0x10
    bc1c:	0cf67063          	bgeu	a2,a5,bcdc <__udivdi3+0x1d8>
    bc20:	10063693          	sltiu	a3,a2,256
    bc24:	0016c693          	xori	a3,a3,1
    bc28:	00369693          	slli	a3,a3,0x3
    bc2c:	00d657b3          	srl	a5,a2,a3
    bc30:	00f585b3          	add	a1,a1,a5
    bc34:	0005c783          	lbu	a5,0(a1)
    bc38:	00d787b3          	add	a5,a5,a3
    bc3c:	02000693          	li	a3,32
    bc40:	40f685b3          	sub	a1,a3,a5
    bc44:	0af69663          	bne	a3,a5,bcf0 <__udivdi3+0x1ec>
    bc48:	40c887b3          	sub	a5,a7,a2
    bc4c:	00100593          	li	a1,1
    bc50:	01075893          	srli	a7,a4,0x10
    bc54:	0317de33          	divu	t3,a5,a7
    bc58:	01071613          	slli	a2,a4,0x10
    bc5c:	01065613          	srli	a2,a2,0x10
    bc60:	01085693          	srli	a3,a6,0x10
    bc64:	0317f7b3          	remu	a5,a5,a7
    bc68:	000e0513          	mv	a0,t3
    bc6c:	03c60333          	mul	t1,a2,t3
    bc70:	01079793          	slli	a5,a5,0x10
    bc74:	00f6e7b3          	or	a5,a3,a5
    bc78:	0067fe63          	bgeu	a5,t1,bc94 <__udivdi3+0x190>
    bc7c:	00e787b3          	add	a5,a5,a4
    bc80:	fffe0513          	addi	a0,t3,-1
    bc84:	00e7e863          	bltu	a5,a4,bc94 <__udivdi3+0x190>
    bc88:	0067f663          	bgeu	a5,t1,bc94 <__udivdi3+0x190>
    bc8c:	ffee0513          	addi	a0,t3,-2
    bc90:	00e787b3          	add	a5,a5,a4
    bc94:	406787b3          	sub	a5,a5,t1
    bc98:	0317d333          	divu	t1,a5,a7
    bc9c:	01081813          	slli	a6,a6,0x10
    bca0:	01085813          	srli	a6,a6,0x10
    bca4:	0317f7b3          	remu	a5,a5,a7
    bca8:	026606b3          	mul	a3,a2,t1
    bcac:	01079793          	slli	a5,a5,0x10
    bcb0:	00f86833          	or	a6,a6,a5
    bcb4:	00030793          	mv	a5,t1
    bcb8:	00d87c63          	bgeu	a6,a3,bcd0 <__udivdi3+0x1cc>
    bcbc:	01070833          	add	a6,a4,a6
    bcc0:	fff30793          	addi	a5,t1,-1
    bcc4:	00e86663          	bltu	a6,a4,bcd0 <__udivdi3+0x1cc>
    bcc8:	00d87463          	bgeu	a6,a3,bcd0 <__udivdi3+0x1cc>
    bccc:	ffe30793          	addi	a5,t1,-2
    bcd0:	01051513          	slli	a0,a0,0x10
    bcd4:	00f56533          	or	a0,a0,a5
    bcd8:	00008067          	ret
    bcdc:	010007b7          	lui	a5,0x1000
    bce0:	01000693          	li	a3,16
    bce4:	f4f664e3          	bltu	a2,a5,bc2c <__udivdi3+0x128>
    bce8:	01800693          	li	a3,24
    bcec:	f41ff06f          	j	bc2c <__udivdi3+0x128>
    bcf0:	00b61733          	sll	a4,a2,a1
    bcf4:	00f8d6b3          	srl	a3,a7,a5
    bcf8:	01075513          	srli	a0,a4,0x10
    bcfc:	00f357b3          	srl	a5,t1,a5
    bd00:	00b31833          	sll	a6,t1,a1
    bd04:	02a6d333          	divu	t1,a3,a0
    bd08:	01071613          	slli	a2,a4,0x10
    bd0c:	00b898b3          	sll	a7,a7,a1
    bd10:	01065613          	srli	a2,a2,0x10
    bd14:	0117e7b3          	or	a5,a5,a7
    bd18:	02a6f6b3          	remu	a3,a3,a0
    bd1c:	026608b3          	mul	a7,a2,t1
    bd20:	01069593          	slli	a1,a3,0x10
    bd24:	0107d693          	srli	a3,a5,0x10
    bd28:	00b6e6b3          	or	a3,a3,a1
    bd2c:	00030593          	mv	a1,t1
    bd30:	0116fe63          	bgeu	a3,a7,bd4c <__udivdi3+0x248>
    bd34:	00e686b3          	add	a3,a3,a4
    bd38:	fff30593          	addi	a1,t1,-1
    bd3c:	00e6e863          	bltu	a3,a4,bd4c <__udivdi3+0x248>
    bd40:	0116f663          	bgeu	a3,a7,bd4c <__udivdi3+0x248>
    bd44:	ffe30593          	addi	a1,t1,-2
    bd48:	00e686b3          	add	a3,a3,a4
    bd4c:	411686b3          	sub	a3,a3,a7
    bd50:	02a6d8b3          	divu	a7,a3,a0
    bd54:	01079793          	slli	a5,a5,0x10
    bd58:	0107d793          	srli	a5,a5,0x10
    bd5c:	02a6f6b3          	remu	a3,a3,a0
    bd60:	03160633          	mul	a2,a2,a7
    bd64:	01069693          	slli	a3,a3,0x10
    bd68:	00d7e7b3          	or	a5,a5,a3
    bd6c:	00088693          	mv	a3,a7
    bd70:	00c7fe63          	bgeu	a5,a2,bd8c <__udivdi3+0x288>
    bd74:	00e787b3          	add	a5,a5,a4
    bd78:	fff88693          	addi	a3,a7,-1
    bd7c:	00e7e863          	bltu	a5,a4,bd8c <__udivdi3+0x288>
    bd80:	00c7f663          	bgeu	a5,a2,bd8c <__udivdi3+0x288>
    bd84:	ffe88693          	addi	a3,a7,-2
    bd88:	00e787b3          	add	a5,a5,a4
    bd8c:	01059593          	slli	a1,a1,0x10
    bd90:	40c787b3          	sub	a5,a5,a2
    bd94:	00d5e5b3          	or	a1,a1,a3
    bd98:	eb9ff06f          	j	bc50 <__udivdi3+0x14c>
    bd9c:	18d5e663          	bltu	a1,a3,bf28 <__udivdi3+0x424>
    bda0:	000107b7          	lui	a5,0x10
    bda4:	04f6f463          	bgeu	a3,a5,bdec <__udivdi3+0x2e8>
    bda8:	1006b713          	sltiu	a4,a3,256
    bdac:	00174713          	xori	a4,a4,1
    bdb0:	00371713          	slli	a4,a4,0x3
    bdb4:	000287b7          	lui	a5,0x28
    bdb8:	00e6d5b3          	srl	a1,a3,a4
    bdbc:	33c78793          	addi	a5,a5,828 # 2833c <__clz_tab>
    bdc0:	00b787b3          	add	a5,a5,a1
    bdc4:	0007c783          	lbu	a5,0(a5)
    bdc8:	00e787b3          	add	a5,a5,a4
    bdcc:	02000713          	li	a4,32
    bdd0:	40f705b3          	sub	a1,a4,a5
    bdd4:	02f71663          	bne	a4,a5,be00 <__udivdi3+0x2fc>
    bdd8:	00100513          	li	a0,1
    bddc:	e116eee3          	bltu	a3,a7,bbf8 <__udivdi3+0xf4>
    bde0:	00c33533          	sltu	a0,t1,a2
    bde4:	00154513          	xori	a0,a0,1
    bde8:	00008067          	ret
    bdec:	010007b7          	lui	a5,0x1000
    bdf0:	01000713          	li	a4,16
    bdf4:	fcf6e0e3          	bltu	a3,a5,bdb4 <__udivdi3+0x2b0>
    bdf8:	01800713          	li	a4,24
    bdfc:	fb9ff06f          	j	bdb4 <__udivdi3+0x2b0>
    be00:	00f65733          	srl	a4,a2,a5
    be04:	00b696b3          	sll	a3,a3,a1
    be08:	00d766b3          	or	a3,a4,a3
    be0c:	00f8d733          	srl	a4,a7,a5
    be10:	00b898b3          	sll	a7,a7,a1
    be14:	00f357b3          	srl	a5,t1,a5
    be18:	0117e7b3          	or	a5,a5,a7
    be1c:	0106d893          	srli	a7,a3,0x10
    be20:	03175eb3          	divu	t4,a4,a7
    be24:	01069813          	slli	a6,a3,0x10
    be28:	01085813          	srli	a6,a6,0x10
    be2c:	00b61633          	sll	a2,a2,a1
    be30:	03177733          	remu	a4,a4,a7
    be34:	03d80e33          	mul	t3,a6,t4
    be38:	01071513          	slli	a0,a4,0x10
    be3c:	0107d713          	srli	a4,a5,0x10
    be40:	00a76733          	or	a4,a4,a0
    be44:	000e8513          	mv	a0,t4
    be48:	01c77e63          	bgeu	a4,t3,be64 <__udivdi3+0x360>
    be4c:	00d70733          	add	a4,a4,a3
    be50:	fffe8513          	addi	a0,t4,-1
    be54:	00d76863          	bltu	a4,a3,be64 <__udivdi3+0x360>
    be58:	01c77663          	bgeu	a4,t3,be64 <__udivdi3+0x360>
    be5c:	ffee8513          	addi	a0,t4,-2
    be60:	00d70733          	add	a4,a4,a3
    be64:	41c70733          	sub	a4,a4,t3
    be68:	03175e33          	divu	t3,a4,a7
    be6c:	01079793          	slli	a5,a5,0x10
    be70:	0107d793          	srli	a5,a5,0x10
    be74:	03177733          	remu	a4,a4,a7
    be78:	03c80833          	mul	a6,a6,t3
    be7c:	01071713          	slli	a4,a4,0x10
    be80:	00e7e7b3          	or	a5,a5,a4
    be84:	000e0713          	mv	a4,t3
    be88:	0107fe63          	bgeu	a5,a6,bea4 <__udivdi3+0x3a0>
    be8c:	00d787b3          	add	a5,a5,a3
    be90:	fffe0713          	addi	a4,t3,-1
    be94:	00d7e863          	bltu	a5,a3,bea4 <__udivdi3+0x3a0>
    be98:	0107f663          	bgeu	a5,a6,bea4 <__udivdi3+0x3a0>
    be9c:	ffee0713          	addi	a4,t3,-2
    bea0:	00d787b3          	add	a5,a5,a3
    bea4:	01051513          	slli	a0,a0,0x10
    bea8:	00010e37          	lui	t3,0x10
    beac:	00e56533          	or	a0,a0,a4
    beb0:	fffe0693          	addi	a3,t3,-1 # ffff <_end_text+0x18bf>
    beb4:	00d57733          	and	a4,a0,a3
    beb8:	410787b3          	sub	a5,a5,a6
    bebc:	00d676b3          	and	a3,a2,a3
    bec0:	01055813          	srli	a6,a0,0x10
    bec4:	01065613          	srli	a2,a2,0x10
    bec8:	02d708b3          	mul	a7,a4,a3
    becc:	02d806b3          	mul	a3,a6,a3
    bed0:	02c70733          	mul	a4,a4,a2
    bed4:	02c80833          	mul	a6,a6,a2
    bed8:	00d70633          	add	a2,a4,a3
    bedc:	0108d713          	srli	a4,a7,0x10
    bee0:	00c70733          	add	a4,a4,a2
    bee4:	00d77463          	bgeu	a4,a3,beec <__udivdi3+0x3e8>
    bee8:	01c80833          	add	a6,a6,t3
    beec:	01075693          	srli	a3,a4,0x10
    bef0:	010686b3          	add	a3,a3,a6
    bef4:	02d7e663          	bltu	a5,a3,bf20 <__udivdi3+0x41c>
    bef8:	ced79ee3          	bne	a5,a3,bbf4 <__udivdi3+0xf0>
    befc:	000107b7          	lui	a5,0x10
    bf00:	fff78793          	addi	a5,a5,-1 # ffff <_end_text+0x18bf>
    bf04:	00f77733          	and	a4,a4,a5
    bf08:	01071713          	slli	a4,a4,0x10
    bf0c:	00f8f8b3          	and	a7,a7,a5
    bf10:	00b31333          	sll	t1,t1,a1
    bf14:	01170733          	add	a4,a4,a7
    bf18:	00000593          	li	a1,0
    bf1c:	cce37ee3          	bgeu	t1,a4,bbf8 <__udivdi3+0xf4>
    bf20:	fff50513          	addi	a0,a0,-1 # ffffff <__heap_end+0xfb7fff>
    bf24:	cd1ff06f          	j	bbf4 <__udivdi3+0xf0>
    bf28:	00000593          	li	a1,0
    bf2c:	00000513          	li	a0,0
    bf30:	00008067          	ret

0000bf34 <__umoddi3>:
    bf34:	00060813          	mv	a6,a2
    bf38:	00050793          	mv	a5,a0
    bf3c:	00058713          	mv	a4,a1
    bf40:	20069663          	bnez	a3,c14c <__umoddi3+0x218>
    bf44:	000288b7          	lui	a7,0x28
    bf48:	33c88893          	addi	a7,a7,828 # 2833c <__clz_tab>
    bf4c:	0cc5fc63          	bgeu	a1,a2,c024 <__umoddi3+0xf0>
    bf50:	000106b7          	lui	a3,0x10
    bf54:	0ad67e63          	bgeu	a2,a3,c010 <__umoddi3+0xdc>
    bf58:	10063693          	sltiu	a3,a2,256
    bf5c:	0016c693          	xori	a3,a3,1
    bf60:	00369693          	slli	a3,a3,0x3
    bf64:	00d65333          	srl	t1,a2,a3
    bf68:	006888b3          	add	a7,a7,t1
    bf6c:	0008c883          	lbu	a7,0(a7)
    bf70:	02000313          	li	t1,32
    bf74:	00d886b3          	add	a3,a7,a3
    bf78:	40d308b3          	sub	a7,t1,a3
    bf7c:	00d30c63          	beq	t1,a3,bf94 <__umoddi3+0x60>
    bf80:	01159733          	sll	a4,a1,a7
    bf84:	00d556b3          	srl	a3,a0,a3
    bf88:	01161833          	sll	a6,a2,a7
    bf8c:	00e6e733          	or	a4,a3,a4
    bf90:	011517b3          	sll	a5,a0,a7
    bf94:	01085613          	srli	a2,a6,0x10
    bf98:	02c756b3          	divu	a3,a4,a2
    bf9c:	01081513          	slli	a0,a6,0x10
    bfa0:	01055513          	srli	a0,a0,0x10
    bfa4:	02c77733          	remu	a4,a4,a2
    bfa8:	02a686b3          	mul	a3,a3,a0
    bfac:	01071593          	slli	a1,a4,0x10
    bfb0:	0107d713          	srli	a4,a5,0x10
    bfb4:	00b76733          	or	a4,a4,a1
    bfb8:	00d77a63          	bgeu	a4,a3,bfcc <__umoddi3+0x98>
    bfbc:	01070733          	add	a4,a4,a6
    bfc0:	01076663          	bltu	a4,a6,bfcc <__umoddi3+0x98>
    bfc4:	00d77463          	bgeu	a4,a3,bfcc <__umoddi3+0x98>
    bfc8:	01070733          	add	a4,a4,a6
    bfcc:	40d70733          	sub	a4,a4,a3
    bfd0:	02c756b3          	divu	a3,a4,a2
    bfd4:	02c77733          	remu	a4,a4,a2
    bfd8:	02a686b3          	mul	a3,a3,a0
    bfdc:	01079793          	slli	a5,a5,0x10
    bfe0:	01071713          	slli	a4,a4,0x10
    bfe4:	0107d793          	srli	a5,a5,0x10
    bfe8:	00e7e7b3          	or	a5,a5,a4
    bfec:	00d7fa63          	bgeu	a5,a3,c000 <__umoddi3+0xcc>
    bff0:	010787b3          	add	a5,a5,a6
    bff4:	0107e663          	bltu	a5,a6,c000 <__umoddi3+0xcc>
    bff8:	00d7f463          	bgeu	a5,a3,c000 <__umoddi3+0xcc>
    bffc:	010787b3          	add	a5,a5,a6
    c000:	40d787b3          	sub	a5,a5,a3
    c004:	0117d533          	srl	a0,a5,a7
    c008:	00000593          	li	a1,0
    c00c:	00008067          	ret
    c010:	01000337          	lui	t1,0x1000
    c014:	01000693          	li	a3,16
    c018:	f46666e3          	bltu	a2,t1,bf64 <__umoddi3+0x30>
    c01c:	01800693          	li	a3,24
    c020:	f45ff06f          	j	bf64 <__umoddi3+0x30>
    c024:	00061463          	bnez	a2,c02c <__umoddi3+0xf8>
    c028:	00100073          	ebreak
    c02c:	00010737          	lui	a4,0x10
    c030:	06e67e63          	bgeu	a2,a4,c0ac <__umoddi3+0x178>
    c034:	10063693          	sltiu	a3,a2,256
    c038:	0016c693          	xori	a3,a3,1
    c03c:	00369693          	slli	a3,a3,0x3
    c040:	00d65733          	srl	a4,a2,a3
    c044:	00e888b3          	add	a7,a7,a4
    c048:	0008c703          	lbu	a4,0(a7)
    c04c:	00d70733          	add	a4,a4,a3
    c050:	02000693          	li	a3,32
    c054:	40e688b3          	sub	a7,a3,a4
    c058:	06e69463          	bne	a3,a4,c0c0 <__umoddi3+0x18c>
    c05c:	40c58733          	sub	a4,a1,a2
    c060:	01085593          	srli	a1,a6,0x10
    c064:	02b75633          	divu	a2,a4,a1
    c068:	01081513          	slli	a0,a6,0x10
    c06c:	01055513          	srli	a0,a0,0x10
    c070:	0107d693          	srli	a3,a5,0x10
    c074:	02b77733          	remu	a4,a4,a1
    c078:	02a60633          	mul	a2,a2,a0
    c07c:	01071713          	slli	a4,a4,0x10
    c080:	00e6e733          	or	a4,a3,a4
    c084:	00c77a63          	bgeu	a4,a2,c098 <__umoddi3+0x164>
    c088:	01070733          	add	a4,a4,a6
    c08c:	01076663          	bltu	a4,a6,c098 <__umoddi3+0x164>
    c090:	00c77463          	bgeu	a4,a2,c098 <__umoddi3+0x164>
    c094:	01070733          	add	a4,a4,a6
    c098:	40c70733          	sub	a4,a4,a2
    c09c:	02b756b3          	divu	a3,a4,a1
    c0a0:	02b77733          	remu	a4,a4,a1
    c0a4:	02a686b3          	mul	a3,a3,a0
    c0a8:	f35ff06f          	j	bfdc <__umoddi3+0xa8>
    c0ac:	01000737          	lui	a4,0x1000
    c0b0:	01000693          	li	a3,16
    c0b4:	f8e666e3          	bltu	a2,a4,c040 <__umoddi3+0x10c>
    c0b8:	01800693          	li	a3,24
    c0bc:	f85ff06f          	j	c040 <__umoddi3+0x10c>
    c0c0:	01161833          	sll	a6,a2,a7
    c0c4:	00e5d6b3          	srl	a3,a1,a4
    c0c8:	011517b3          	sll	a5,a0,a7
    c0cc:	011595b3          	sll	a1,a1,a7
    c0d0:	00e55733          	srl	a4,a0,a4
    c0d4:	01085513          	srli	a0,a6,0x10
    c0d8:	00b76733          	or	a4,a4,a1
    c0dc:	02a6d5b3          	divu	a1,a3,a0
    c0e0:	01081313          	slli	t1,a6,0x10
    c0e4:	01035313          	srli	t1,t1,0x10
    c0e8:	02a6f6b3          	remu	a3,a3,a0
    c0ec:	026585b3          	mul	a1,a1,t1
    c0f0:	01069613          	slli	a2,a3,0x10
    c0f4:	01075693          	srli	a3,a4,0x10
    c0f8:	00c6e6b3          	or	a3,a3,a2
    c0fc:	00b6fa63          	bgeu	a3,a1,c110 <__umoddi3+0x1dc>
    c100:	010686b3          	add	a3,a3,a6
    c104:	0106e663          	bltu	a3,a6,c110 <__umoddi3+0x1dc>
    c108:	00b6f463          	bgeu	a3,a1,c110 <__umoddi3+0x1dc>
    c10c:	010686b3          	add	a3,a3,a6
    c110:	40b686b3          	sub	a3,a3,a1
    c114:	02a6d633          	divu	a2,a3,a0
    c118:	01071713          	slli	a4,a4,0x10
    c11c:	01075713          	srli	a4,a4,0x10
    c120:	02a6f6b3          	remu	a3,a3,a0
    c124:	02660633          	mul	a2,a2,t1
    c128:	01069693          	slli	a3,a3,0x10
    c12c:	00d76733          	or	a4,a4,a3
    c130:	00c77a63          	bgeu	a4,a2,c144 <__umoddi3+0x210>
    c134:	01070733          	add	a4,a4,a6
    c138:	01076663          	bltu	a4,a6,c144 <__umoddi3+0x210>
    c13c:	00c77463          	bgeu	a4,a2,c144 <__umoddi3+0x210>
    c140:	01070733          	add	a4,a4,a6
    c144:	40c70733          	sub	a4,a4,a2
    c148:	f19ff06f          	j	c060 <__umoddi3+0x12c>
    c14c:	1cd5e463          	bltu	a1,a3,c314 <__umoddi3+0x3e0>
    c150:	00010837          	lui	a6,0x10
    c154:	0506fe63          	bgeu	a3,a6,c1b0 <__umoddi3+0x27c>
    c158:	1006b813          	sltiu	a6,a3,256
    c15c:	00184813          	xori	a6,a6,1
    c160:	00381813          	slli	a6,a6,0x3
    c164:	000288b7          	lui	a7,0x28
    c168:	0106d333          	srl	t1,a3,a6
    c16c:	33c88893          	addi	a7,a7,828 # 2833c <__clz_tab>
    c170:	006888b3          	add	a7,a7,t1
    c174:	0008c883          	lbu	a7,0(a7)
    c178:	02000313          	li	t1,32
    c17c:	010888b3          	add	a7,a7,a6
    c180:	41130833          	sub	a6,t1,a7
    c184:	05131063          	bne	t1,a7,c1c4 <__umoddi3+0x290>
    c188:	00b6e463          	bltu	a3,a1,c190 <__umoddi3+0x25c>
    c18c:	00c56c63          	bltu	a0,a2,c1a4 <__umoddi3+0x270>
    c190:	40c50633          	sub	a2,a0,a2
    c194:	40d586b3          	sub	a3,a1,a3
    c198:	00c53733          	sltu	a4,a0,a2
    c19c:	40e68733          	sub	a4,a3,a4
    c1a0:	00060793          	mv	a5,a2
    c1a4:	00078513          	mv	a0,a5
    c1a8:	00070593          	mv	a1,a4
    c1ac:	00008067          	ret
    c1b0:	010008b7          	lui	a7,0x1000
    c1b4:	01000813          	li	a6,16
    c1b8:	fb16e6e3          	bltu	a3,a7,c164 <__umoddi3+0x230>
    c1bc:	01800813          	li	a6,24
    c1c0:	fa5ff06f          	j	c164 <__umoddi3+0x230>
    c1c4:	010696b3          	sll	a3,a3,a6
    c1c8:	01165333          	srl	t1,a2,a7
    c1cc:	00d36333          	or	t1,t1,a3
    c1d0:	01035e13          	srli	t3,t1,0x10
    c1d4:	0115d6b3          	srl	a3,a1,a7
    c1d8:	03c6df33          	divu	t5,a3,t3
    c1dc:	01031713          	slli	a4,t1,0x10
    c1e0:	01075713          	srli	a4,a4,0x10
    c1e4:	010597b3          	sll	a5,a1,a6
    c1e8:	011555b3          	srl	a1,a0,a7
    c1ec:	00f5e5b3          	or	a1,a1,a5
    c1f0:	0105d793          	srli	a5,a1,0x10
    c1f4:	01061633          	sll	a2,a2,a6
    c1f8:	01051533          	sll	a0,a0,a6
    c1fc:	03c6f6b3          	remu	a3,a3,t3
    c200:	03e70eb3          	mul	t4,a4,t5
    c204:	01069693          	slli	a3,a3,0x10
    c208:	00d7e7b3          	or	a5,a5,a3
    c20c:	000f0693          	mv	a3,t5
    c210:	01d7fe63          	bgeu	a5,t4,c22c <__umoddi3+0x2f8>
    c214:	006787b3          	add	a5,a5,t1
    c218:	ffff0693          	addi	a3,t5,-1
    c21c:	0067e863          	bltu	a5,t1,c22c <__umoddi3+0x2f8>
    c220:	01d7f663          	bgeu	a5,t4,c22c <__umoddi3+0x2f8>
    c224:	ffef0693          	addi	a3,t5,-2
    c228:	006787b3          	add	a5,a5,t1
    c22c:	41d787b3          	sub	a5,a5,t4
    c230:	03c7deb3          	divu	t4,a5,t3
    c234:	01059593          	slli	a1,a1,0x10
    c238:	0105d593          	srli	a1,a1,0x10
    c23c:	03c7f7b3          	remu	a5,a5,t3
    c240:	03d70733          	mul	a4,a4,t4
    c244:	01079793          	slli	a5,a5,0x10
    c248:	00f5e5b3          	or	a1,a1,a5
    c24c:	000e8793          	mv	a5,t4
    c250:	00e5fe63          	bgeu	a1,a4,c26c <__umoddi3+0x338>
    c254:	006585b3          	add	a1,a1,t1
    c258:	fffe8793          	addi	a5,t4,-1
    c25c:	0065e863          	bltu	a1,t1,c26c <__umoddi3+0x338>
    c260:	00e5f663          	bgeu	a1,a4,c26c <__umoddi3+0x338>
    c264:	ffee8793          	addi	a5,t4,-2
    c268:	006585b3          	add	a1,a1,t1
    c26c:	01069693          	slli	a3,a3,0x10
    c270:	00010f37          	lui	t5,0x10
    c274:	00f6e6b3          	or	a3,a3,a5
    c278:	ffff0793          	addi	a5,t5,-1 # ffff <_end_text+0x18bf>
    c27c:	01065e13          	srli	t3,a2,0x10
    c280:	40e585b3          	sub	a1,a1,a4
    c284:	00f6f733          	and	a4,a3,a5
    c288:	0106d693          	srli	a3,a3,0x10
    c28c:	00f677b3          	and	a5,a2,a5
    c290:	02f70eb3          	mul	t4,a4,a5
    c294:	02f687b3          	mul	a5,a3,a5
    c298:	03c70733          	mul	a4,a4,t3
    c29c:	03c686b3          	mul	a3,a3,t3
    c2a0:	00f70e33          	add	t3,a4,a5
    c2a4:	010ed713          	srli	a4,t4,0x10
    c2a8:	01c70733          	add	a4,a4,t3
    c2ac:	00f77463          	bgeu	a4,a5,c2b4 <__umoddi3+0x380>
    c2b0:	01e686b3          	add	a3,a3,t5
    c2b4:	01075793          	srli	a5,a4,0x10
    c2b8:	00d787b3          	add	a5,a5,a3
    c2bc:	000106b7          	lui	a3,0x10
    c2c0:	fff68693          	addi	a3,a3,-1 # ffff <_end_text+0x18bf>
    c2c4:	00d77733          	and	a4,a4,a3
    c2c8:	01071713          	slli	a4,a4,0x10
    c2cc:	00defeb3          	and	t4,t4,a3
    c2d0:	01d70733          	add	a4,a4,t4
    c2d4:	00f5e663          	bltu	a1,a5,c2e0 <__umoddi3+0x3ac>
    c2d8:	00f59e63          	bne	a1,a5,c2f4 <__umoddi3+0x3c0>
    c2dc:	00e57c63          	bgeu	a0,a4,c2f4 <__umoddi3+0x3c0>
    c2e0:	40c70633          	sub	a2,a4,a2
    c2e4:	00c73733          	sltu	a4,a4,a2
    c2e8:	00670733          	add	a4,a4,t1
    c2ec:	40e787b3          	sub	a5,a5,a4
    c2f0:	00060713          	mv	a4,a2
    c2f4:	40e50733          	sub	a4,a0,a4
    c2f8:	00e53533          	sltu	a0,a0,a4
    c2fc:	40f585b3          	sub	a1,a1,a5
    c300:	40a585b3          	sub	a1,a1,a0
    c304:	011598b3          	sll	a7,a1,a7
    c308:	01075733          	srl	a4,a4,a6
    c30c:	00e8e533          	or	a0,a7,a4
    c310:	0105d5b3          	srl	a1,a1,a6
    c314:	00008067          	ret

0000c318 <__adddf3>:
    c318:	00100837          	lui	a6,0x100
    c31c:	fff80813          	addi	a6,a6,-1 # fffff <__heap_end+0xb7fff>
    c320:	fe010113          	addi	sp,sp,-32
    c324:	00b878b3          	and	a7,a6,a1
    c328:	0145d713          	srli	a4,a1,0x14
    c32c:	01d55793          	srli	a5,a0,0x1d
    c330:	00d87833          	and	a6,a6,a3
    c334:	00812c23          	sw	s0,24(sp)
    c338:	7ff77413          	andi	s0,a4,2047
    c33c:	00389713          	slli	a4,a7,0x3
    c340:	0146d893          	srli	a7,a3,0x14
    c344:	00381813          	slli	a6,a6,0x3
    c348:	00912a23          	sw	s1,20(sp)
    c34c:	00e7e7b3          	or	a5,a5,a4
    c350:	7ff8f893          	andi	a7,a7,2047
    c354:	01d65713          	srli	a4,a2,0x1d
    c358:	00112e23          	sw	ra,28(sp)
    c35c:	01212823          	sw	s2,16(sp)
    c360:	01312623          	sw	s3,12(sp)
    c364:	01f5d493          	srli	s1,a1,0x1f
    c368:	01f6d693          	srli	a3,a3,0x1f
    c36c:	01076733          	or	a4,a4,a6
    c370:	00351513          	slli	a0,a0,0x3
    c374:	00361613          	slli	a2,a2,0x3
    c378:	41140833          	sub	a6,s0,a7
    c37c:	2cd49863          	bne	s1,a3,c64c <__adddf3+0x334>
    c380:	13005063          	blez	a6,c4a0 <__adddf3+0x188>
    c384:	04089063          	bnez	a7,c3c4 <__adddf3+0xac>
    c388:	00c766b3          	or	a3,a4,a2
    c38c:	70068e63          	beqz	a3,caa8 <__adddf3+0x790>
    c390:	fff80593          	addi	a1,a6,-1
    c394:	02059063          	bnez	a1,c3b4 <__adddf3+0x9c>
    c398:	00c50633          	add	a2,a0,a2
    c39c:	00e78733          	add	a4,a5,a4
    c3a0:	00a637b3          	sltu	a5,a2,a0
    c3a4:	00f707b3          	add	a5,a4,a5
    c3a8:	00060513          	mv	a0,a2
    c3ac:	00100413          	li	s0,1
    c3b0:	0700006f          	j	c420 <__adddf3+0x108>
    c3b4:	7ff00693          	li	a3,2047
    c3b8:	02d81063          	bne	a6,a3,c3d8 <__adddf3+0xc0>
    c3bc:	7ff00413          	li	s0,2047
    c3c0:	2140006f          	j	c5d4 <__adddf3+0x2bc>
    c3c4:	7ff00693          	li	a3,2047
    c3c8:	20d40663          	beq	s0,a3,c5d4 <__adddf3+0x2bc>
    c3cc:	008006b7          	lui	a3,0x800
    c3d0:	00d76733          	or	a4,a4,a3
    c3d4:	00080593          	mv	a1,a6
    c3d8:	03800693          	li	a3,56
    c3dc:	0ab6cc63          	blt	a3,a1,c494 <__adddf3+0x17c>
    c3e0:	01f00693          	li	a3,31
    c3e4:	06b6ce63          	blt	a3,a1,c460 <__adddf3+0x148>
    c3e8:	02000813          	li	a6,32
    c3ec:	40b80833          	sub	a6,a6,a1
    c3f0:	010716b3          	sll	a3,a4,a6
    c3f4:	00b658b3          	srl	a7,a2,a1
    c3f8:	01061833          	sll	a6,a2,a6
    c3fc:	0116e6b3          	or	a3,a3,a7
    c400:	01003833          	snez	a6,a6
    c404:	0106e6b3          	or	a3,a3,a6
    c408:	00b755b3          	srl	a1,a4,a1
    c40c:	00a686b3          	add	a3,a3,a0
    c410:	00f585b3          	add	a1,a1,a5
    c414:	00a6b7b3          	sltu	a5,a3,a0
    c418:	00f587b3          	add	a5,a1,a5
    c41c:	00068513          	mv	a0,a3
    c420:	00800737          	lui	a4,0x800
    c424:	00e7f733          	and	a4,a5,a4
    c428:	1a070663          	beqz	a4,c5d4 <__adddf3+0x2bc>
    c42c:	00140413          	addi	s0,s0,1
    c430:	7ff00713          	li	a4,2047
    c434:	5ce40a63          	beq	s0,a4,ca08 <__adddf3+0x6f0>
    c438:	ff800737          	lui	a4,0xff800
    c43c:	fff70713          	addi	a4,a4,-1 # ff7fffff <__heap_end+0xff7b7fff>
    c440:	00e7f7b3          	and	a5,a5,a4
    c444:	00155713          	srli	a4,a0,0x1
    c448:	00157513          	andi	a0,a0,1
    c44c:	00a76733          	or	a4,a4,a0
    c450:	01f79513          	slli	a0,a5,0x1f
    c454:	00e56533          	or	a0,a0,a4
    c458:	0017d793          	srli	a5,a5,0x1
    c45c:	1780006f          	j	c5d4 <__adddf3+0x2bc>
    c460:	fe058693          	addi	a3,a1,-32
    c464:	02000893          	li	a7,32
    c468:	00d756b3          	srl	a3,a4,a3
    c46c:	00000813          	li	a6,0
    c470:	01158863          	beq	a1,a7,c480 <__adddf3+0x168>
    c474:	04000813          	li	a6,64
    c478:	40b80833          	sub	a6,a6,a1
    c47c:	01071833          	sll	a6,a4,a6
    c480:	00c86833          	or	a6,a6,a2
    c484:	01003833          	snez	a6,a6
    c488:	0106e6b3          	or	a3,a3,a6
    c48c:	00000593          	li	a1,0
    c490:	f7dff06f          	j	c40c <__adddf3+0xf4>
    c494:	00c766b3          	or	a3,a4,a2
    c498:	00d036b3          	snez	a3,a3
    c49c:	ff1ff06f          	j	c48c <__adddf3+0x174>
    c4a0:	0e080263          	beqz	a6,c584 <__adddf3+0x26c>
    c4a4:	408885b3          	sub	a1,a7,s0
    c4a8:	02041e63          	bnez	s0,c4e4 <__adddf3+0x1cc>
    c4ac:	00a7e6b3          	or	a3,a5,a0
    c4b0:	52068c63          	beqz	a3,c9e8 <__adddf3+0x6d0>
    c4b4:	fff58693          	addi	a3,a1,-1
    c4b8:	00069c63          	bnez	a3,c4d0 <__adddf3+0x1b8>
    c4bc:	00c50533          	add	a0,a0,a2
    c4c0:	00e78733          	add	a4,a5,a4
    c4c4:	00c53633          	sltu	a2,a0,a2
    c4c8:	00c707b3          	add	a5,a4,a2
    c4cc:	ee1ff06f          	j	c3ac <__adddf3+0x94>
    c4d0:	7ff00813          	li	a6,2047
    c4d4:	03059263          	bne	a1,a6,c4f8 <__adddf3+0x1e0>
    c4d8:	00070793          	mv	a5,a4
    c4dc:	00060513          	mv	a0,a2
    c4e0:	eddff06f          	j	c3bc <__adddf3+0xa4>
    c4e4:	7ff00693          	li	a3,2047
    c4e8:	fed888e3          	beq	a7,a3,c4d8 <__adddf3+0x1c0>
    c4ec:	008006b7          	lui	a3,0x800
    c4f0:	00d7e7b3          	or	a5,a5,a3
    c4f4:	00058693          	mv	a3,a1
    c4f8:	03800593          	li	a1,56
    c4fc:	06d5ce63          	blt	a1,a3,c578 <__adddf3+0x260>
    c500:	01f00593          	li	a1,31
    c504:	04d5c063          	blt	a1,a3,c544 <__adddf3+0x22c>
    c508:	02000813          	li	a6,32
    c50c:	40d80833          	sub	a6,a6,a3
    c510:	010795b3          	sll	a1,a5,a6
    c514:	00d55333          	srl	t1,a0,a3
    c518:	01051833          	sll	a6,a0,a6
    c51c:	0065e5b3          	or	a1,a1,t1
    c520:	01003833          	snez	a6,a6
    c524:	0105e5b3          	or	a1,a1,a6
    c528:	00d7d6b3          	srl	a3,a5,a3
    c52c:	00c58533          	add	a0,a1,a2
    c530:	00e686b3          	add	a3,a3,a4
    c534:	00c53633          	sltu	a2,a0,a2
    c538:	00c687b3          	add	a5,a3,a2
    c53c:	00088413          	mv	s0,a7
    c540:	ee1ff06f          	j	c420 <__adddf3+0x108>
    c544:	fe068593          	addi	a1,a3,-32 # 7fffe0 <__heap_end+0x7b7fe0>
    c548:	02000313          	li	t1,32
    c54c:	00b7d5b3          	srl	a1,a5,a1
    c550:	00000813          	li	a6,0
    c554:	00668863          	beq	a3,t1,c564 <__adddf3+0x24c>
    c558:	04000813          	li	a6,64
    c55c:	40d80833          	sub	a6,a6,a3
    c560:	01079833          	sll	a6,a5,a6
    c564:	00a86833          	or	a6,a6,a0
    c568:	01003833          	snez	a6,a6
    c56c:	0105e5b3          	or	a1,a1,a6
    c570:	00000693          	li	a3,0
    c574:	fb9ff06f          	j	c52c <__adddf3+0x214>
    c578:	00a7e5b3          	or	a1,a5,a0
    c57c:	00b035b3          	snez	a1,a1
    c580:	ff1ff06f          	j	c570 <__adddf3+0x258>
    c584:	00140693          	addi	a3,s0,1
    c588:	7fe6f593          	andi	a1,a3,2046
    c58c:	08059863          	bnez	a1,c61c <__adddf3+0x304>
    c590:	00a7e6b3          	or	a3,a5,a0
    c594:	06041463          	bnez	s0,c5fc <__adddf3+0x2e4>
    c598:	46068063          	beqz	a3,c9f8 <__adddf3+0x6e0>
    c59c:	00c766b3          	or	a3,a4,a2
    c5a0:	02068a63          	beqz	a3,c5d4 <__adddf3+0x2bc>
    c5a4:	00c50633          	add	a2,a0,a2
    c5a8:	00e78733          	add	a4,a5,a4
    c5ac:	00a637b3          	sltu	a5,a2,a0
    c5b0:	00f707b3          	add	a5,a4,a5
    c5b4:	00800737          	lui	a4,0x800
    c5b8:	00e7f733          	and	a4,a5,a4
    c5bc:	00060513          	mv	a0,a2
    c5c0:	00070a63          	beqz	a4,c5d4 <__adddf3+0x2bc>
    c5c4:	ff800737          	lui	a4,0xff800
    c5c8:	fff70713          	addi	a4,a4,-1 # ff7fffff <__heap_end+0xff7b7fff>
    c5cc:	00e7f7b3          	and	a5,a5,a4
    c5d0:	00100413          	li	s0,1
    c5d4:	00757713          	andi	a4,a0,7
    c5d8:	42070c63          	beqz	a4,ca10 <__adddf3+0x6f8>
    c5dc:	00f57713          	andi	a4,a0,15
    c5e0:	00400693          	li	a3,4
    c5e4:	42d70663          	beq	a4,a3,ca10 <__adddf3+0x6f8>
    c5e8:	00450713          	addi	a4,a0,4
    c5ec:	00a73533          	sltu	a0,a4,a0
    c5f0:	00a787b3          	add	a5,a5,a0
    c5f4:	00070513          	mv	a0,a4
    c5f8:	4180006f          	j	ca10 <__adddf3+0x6f8>
    c5fc:	ec068ee3          	beqz	a3,c4d8 <__adddf3+0x1c0>
    c600:	00c76733          	or	a4,a4,a2
    c604:	da070ce3          	beqz	a4,c3bc <__adddf3+0xa4>
    c608:	00000493          	li	s1,0
    c60c:	004007b7          	lui	a5,0x400
    c610:	00000513          	li	a0,0
    c614:	7ff00413          	li	s0,2047
    c618:	3f80006f          	j	ca10 <__adddf3+0x6f8>
    c61c:	7ff00593          	li	a1,2047
    c620:	3eb68263          	beq	a3,a1,ca04 <__adddf3+0x6ec>
    c624:	00c50633          	add	a2,a0,a2
    c628:	00a63533          	sltu	a0,a2,a0
    c62c:	00e78733          	add	a4,a5,a4
    c630:	00a70733          	add	a4,a4,a0
    c634:	01f71513          	slli	a0,a4,0x1f
    c638:	00165613          	srli	a2,a2,0x1
    c63c:	00c56533          	or	a0,a0,a2
    c640:	00175793          	srli	a5,a4,0x1
    c644:	00068413          	mv	s0,a3
    c648:	f8dff06f          	j	c5d4 <__adddf3+0x2bc>
    c64c:	0f005c63          	blez	a6,c744 <__adddf3+0x42c>
    c650:	08089e63          	bnez	a7,c6ec <__adddf3+0x3d4>
    c654:	00c766b3          	or	a3,a4,a2
    c658:	44068863          	beqz	a3,caa8 <__adddf3+0x790>
    c65c:	fff80593          	addi	a1,a6,-1
    c660:	02059063          	bnez	a1,c680 <__adddf3+0x368>
    c664:	40c50633          	sub	a2,a0,a2
    c668:	40e78733          	sub	a4,a5,a4
    c66c:	00c537b3          	sltu	a5,a0,a2
    c670:	40f707b3          	sub	a5,a4,a5
    c674:	00060513          	mv	a0,a2
    c678:	00100413          	li	s0,1
    c67c:	0540006f          	j	c6d0 <__adddf3+0x3b8>
    c680:	7ff00693          	li	a3,2047
    c684:	d2d80ce3          	beq	a6,a3,c3bc <__adddf3+0xa4>
    c688:	03800693          	li	a3,56
    c68c:	0ab6c663          	blt	a3,a1,c738 <__adddf3+0x420>
    c690:	01f00693          	li	a3,31
    c694:	06b6c863          	blt	a3,a1,c704 <__adddf3+0x3ec>
    c698:	02000813          	li	a6,32
    c69c:	40b80833          	sub	a6,a6,a1
    c6a0:	010716b3          	sll	a3,a4,a6
    c6a4:	00b658b3          	srl	a7,a2,a1
    c6a8:	01061833          	sll	a6,a2,a6
    c6ac:	0116e6b3          	or	a3,a3,a7
    c6b0:	01003833          	snez	a6,a6
    c6b4:	0106e6b3          	or	a3,a3,a6
    c6b8:	00b755b3          	srl	a1,a4,a1
    c6bc:	40d506b3          	sub	a3,a0,a3
    c6c0:	40b785b3          	sub	a1,a5,a1
    c6c4:	00d537b3          	sltu	a5,a0,a3
    c6c8:	40f587b3          	sub	a5,a1,a5
    c6cc:	00068513          	mv	a0,a3
    c6d0:	00800937          	lui	s2,0x800
    c6d4:	0127f733          	and	a4,a5,s2
    c6d8:	ee070ee3          	beqz	a4,c5d4 <__adddf3+0x2bc>
    c6dc:	fff90913          	addi	s2,s2,-1 # 7fffff <__heap_end+0x7b7fff>
    c6e0:	0127f933          	and	s2,a5,s2
    c6e4:	00050993          	mv	s3,a0
    c6e8:	2140006f          	j	c8fc <__adddf3+0x5e4>
    c6ec:	7ff00693          	li	a3,2047
    c6f0:	eed402e3          	beq	s0,a3,c5d4 <__adddf3+0x2bc>
    c6f4:	008006b7          	lui	a3,0x800
    c6f8:	00d76733          	or	a4,a4,a3
    c6fc:	00080593          	mv	a1,a6
    c700:	f89ff06f          	j	c688 <__adddf3+0x370>
    c704:	fe058693          	addi	a3,a1,-32
    c708:	02000893          	li	a7,32
    c70c:	00d756b3          	srl	a3,a4,a3
    c710:	00000813          	li	a6,0
    c714:	01158863          	beq	a1,a7,c724 <__adddf3+0x40c>
    c718:	04000813          	li	a6,64
    c71c:	40b80833          	sub	a6,a6,a1
    c720:	01071833          	sll	a6,a4,a6
    c724:	00c86833          	or	a6,a6,a2
    c728:	01003833          	snez	a6,a6
    c72c:	0106e6b3          	or	a3,a3,a6
    c730:	00000593          	li	a1,0
    c734:	f89ff06f          	j	c6bc <__adddf3+0x3a4>
    c738:	00c766b3          	or	a3,a4,a2
    c73c:	00d036b3          	snez	a3,a3
    c740:	ff1ff06f          	j	c730 <__adddf3+0x418>
    c744:	0e080863          	beqz	a6,c834 <__adddf3+0x51c>
    c748:	40888833          	sub	a6,a7,s0
    c74c:	04041263          	bnez	s0,c790 <__adddf3+0x478>
    c750:	00a7e5b3          	or	a1,a5,a0
    c754:	34058e63          	beqz	a1,cab0 <__adddf3+0x798>
    c758:	fff80593          	addi	a1,a6,-1
    c75c:	00059e63          	bnez	a1,c778 <__adddf3+0x460>
    c760:	40a60533          	sub	a0,a2,a0
    c764:	40f70733          	sub	a4,a4,a5
    c768:	00a63633          	sltu	a2,a2,a0
    c76c:	40c707b3          	sub	a5,a4,a2
    c770:	00068493          	mv	s1,a3
    c774:	f05ff06f          	j	c678 <__adddf3+0x360>
    c778:	7ff00313          	li	t1,2047
    c77c:	02681463          	bne	a6,t1,c7a4 <__adddf3+0x48c>
    c780:	00070793          	mv	a5,a4
    c784:	00060513          	mv	a0,a2
    c788:	7ff00413          	li	s0,2047
    c78c:	0d00006f          	j	c85c <__adddf3+0x544>
    c790:	7ff00593          	li	a1,2047
    c794:	feb886e3          	beq	a7,a1,c780 <__adddf3+0x468>
    c798:	008005b7          	lui	a1,0x800
    c79c:	00b7e7b3          	or	a5,a5,a1
    c7a0:	00080593          	mv	a1,a6
    c7a4:	03800813          	li	a6,56
    c7a8:	08b84063          	blt	a6,a1,c828 <__adddf3+0x510>
    c7ac:	01f00813          	li	a6,31
    c7b0:	04b84263          	blt	a6,a1,c7f4 <__adddf3+0x4dc>
    c7b4:	02000313          	li	t1,32
    c7b8:	40b30333          	sub	t1,t1,a1
    c7bc:	00b55e33          	srl	t3,a0,a1
    c7c0:	00679833          	sll	a6,a5,t1
    c7c4:	00651333          	sll	t1,a0,t1
    c7c8:	01c86833          	or	a6,a6,t3
    c7cc:	00603333          	snez	t1,t1
    c7d0:	00686533          	or	a0,a6,t1
    c7d4:	00b7d5b3          	srl	a1,a5,a1
    c7d8:	40a60533          	sub	a0,a2,a0
    c7dc:	40b705b3          	sub	a1,a4,a1
    c7e0:	00a63633          	sltu	a2,a2,a0
    c7e4:	40c587b3          	sub	a5,a1,a2
    c7e8:	00088413          	mv	s0,a7
    c7ec:	00068493          	mv	s1,a3
    c7f0:	ee1ff06f          	j	c6d0 <__adddf3+0x3b8>
    c7f4:	fe058813          	addi	a6,a1,-32 # 7fffe0 <__heap_end+0x7b7fe0>
    c7f8:	02000e13          	li	t3,32
    c7fc:	0107d833          	srl	a6,a5,a6
    c800:	00000313          	li	t1,0
    c804:	01c58863          	beq	a1,t3,c814 <__adddf3+0x4fc>
    c808:	04000313          	li	t1,64
    c80c:	40b30333          	sub	t1,t1,a1
    c810:	00679333          	sll	t1,a5,t1
    c814:	00a36333          	or	t1,t1,a0
    c818:	00603333          	snez	t1,t1
    c81c:	00686533          	or	a0,a6,t1
    c820:	00000593          	li	a1,0
    c824:	fb5ff06f          	j	c7d8 <__adddf3+0x4c0>
    c828:	00a7e533          	or	a0,a5,a0
    c82c:	00a03533          	snez	a0,a0
    c830:	ff1ff06f          	j	c820 <__adddf3+0x508>
    c834:	00140593          	addi	a1,s0,1
    c838:	7fe5f593          	andi	a1,a1,2046
    c83c:	08059863          	bnez	a1,c8cc <__adddf3+0x5b4>
    c840:	00a7e833          	or	a6,a5,a0
    c844:	00c765b3          	or	a1,a4,a2
    c848:	06041263          	bnez	s0,c8ac <__adddf3+0x594>
    c84c:	00081c63          	bnez	a6,c864 <__adddf3+0x54c>
    c850:	26058863          	beqz	a1,cac0 <__adddf3+0x7a8>
    c854:	00070793          	mv	a5,a4
    c858:	00060513          	mv	a0,a2
    c85c:	00068493          	mv	s1,a3
    c860:	d75ff06f          	j	c5d4 <__adddf3+0x2bc>
    c864:	d60588e3          	beqz	a1,c5d4 <__adddf3+0x2bc>
    c868:	40c50833          	sub	a6,a0,a2
    c86c:	010538b3          	sltu	a7,a0,a6
    c870:	40e785b3          	sub	a1,a5,a4
    c874:	411585b3          	sub	a1,a1,a7
    c878:	008008b7          	lui	a7,0x800
    c87c:	0115f8b3          	and	a7,a1,a7
    c880:	00088c63          	beqz	a7,c898 <__adddf3+0x580>
    c884:	40a60533          	sub	a0,a2,a0
    c888:	40f70733          	sub	a4,a4,a5
    c88c:	00a63633          	sltu	a2,a2,a0
    c890:	40c707b3          	sub	a5,a4,a2
    c894:	fc9ff06f          	j	c85c <__adddf3+0x544>
    c898:	00b86533          	or	a0,a6,a1
    c89c:	22050a63          	beqz	a0,cad0 <__adddf3+0x7b8>
    c8a0:	00058793          	mv	a5,a1
    c8a4:	00080513          	mv	a0,a6
    c8a8:	d2dff06f          	j	c5d4 <__adddf3+0x2bc>
    c8ac:	00081c63          	bnez	a6,c8c4 <__adddf3+0x5ac>
    c8b0:	22058463          	beqz	a1,cad8 <__adddf3+0x7c0>
    c8b4:	00070793          	mv	a5,a4
    c8b8:	00060513          	mv	a0,a2
    c8bc:	00068493          	mv	s1,a3
    c8c0:	afdff06f          	j	c3bc <__adddf3+0xa4>
    c8c4:	ae058ce3          	beqz	a1,c3bc <__adddf3+0xa4>
    c8c8:	d41ff06f          	j	c608 <__adddf3+0x2f0>
    c8cc:	40c509b3          	sub	s3,a0,a2
    c8d0:	013535b3          	sltu	a1,a0,s3
    c8d4:	40e78933          	sub	s2,a5,a4
    c8d8:	40b90933          	sub	s2,s2,a1
    c8dc:	008005b7          	lui	a1,0x800
    c8e0:	00b975b3          	and	a1,s2,a1
    c8e4:	08058463          	beqz	a1,c96c <__adddf3+0x654>
    c8e8:	40a609b3          	sub	s3,a2,a0
    c8ec:	40f70933          	sub	s2,a4,a5
    c8f0:	01363633          	sltu	a2,a2,s3
    c8f4:	40c90933          	sub	s2,s2,a2
    c8f8:	00068493          	mv	s1,a3
    c8fc:	08090263          	beqz	s2,c980 <__adddf3+0x668>
    c900:	00090513          	mv	a0,s2
    c904:	341010ef          	jal	ra,e444 <__clzsi2>
    c908:	ff850713          	addi	a4,a0,-8
    c90c:	01f00793          	li	a5,31
    c910:	08e7c063          	blt	a5,a4,c990 <__adddf3+0x678>
    c914:	02000793          	li	a5,32
    c918:	40e787b3          	sub	a5,a5,a4
    c91c:	00e91933          	sll	s2,s2,a4
    c920:	00f9d7b3          	srl	a5,s3,a5
    c924:	0127e7b3          	or	a5,a5,s2
    c928:	00e99533          	sll	a0,s3,a4
    c92c:	0a874463          	blt	a4,s0,c9d4 <__adddf3+0x6bc>
    c930:	40870733          	sub	a4,a4,s0
    c934:	00170613          	addi	a2,a4,1
    c938:	01f00693          	li	a3,31
    c93c:	06c6c263          	blt	a3,a2,c9a0 <__adddf3+0x688>
    c940:	02000713          	li	a4,32
    c944:	40c70733          	sub	a4,a4,a2
    c948:	00e796b3          	sll	a3,a5,a4
    c94c:	00c555b3          	srl	a1,a0,a2
    c950:	00e51733          	sll	a4,a0,a4
    c954:	00b6e6b3          	or	a3,a3,a1
    c958:	00e03733          	snez	a4,a4
    c95c:	00e6e533          	or	a0,a3,a4
    c960:	00c7d7b3          	srl	a5,a5,a2
    c964:	00000413          	li	s0,0
    c968:	c6dff06f          	j	c5d4 <__adddf3+0x2bc>
    c96c:	0129e533          	or	a0,s3,s2
    c970:	f80516e3          	bnez	a0,c8fc <__adddf3+0x5e4>
    c974:	00000793          	li	a5,0
    c978:	00000413          	li	s0,0
    c97c:	14c0006f          	j	cac8 <__adddf3+0x7b0>
    c980:	00098513          	mv	a0,s3
    c984:	2c1010ef          	jal	ra,e444 <__clzsi2>
    c988:	02050513          	addi	a0,a0,32
    c98c:	f7dff06f          	j	c908 <__adddf3+0x5f0>
    c990:	fd850793          	addi	a5,a0,-40
    c994:	00f997b3          	sll	a5,s3,a5
    c998:	00000513          	li	a0,0
    c99c:	f91ff06f          	j	c92c <__adddf3+0x614>
    c9a0:	fe170713          	addi	a4,a4,-31
    c9a4:	02000593          	li	a1,32
    c9a8:	00e7d733          	srl	a4,a5,a4
    c9ac:	00000693          	li	a3,0
    c9b0:	00b60863          	beq	a2,a1,c9c0 <__adddf3+0x6a8>
    c9b4:	04000693          	li	a3,64
    c9b8:	40c686b3          	sub	a3,a3,a2
    c9bc:	00d796b3          	sll	a3,a5,a3
    c9c0:	00d566b3          	or	a3,a0,a3
    c9c4:	00d036b3          	snez	a3,a3
    c9c8:	00d76533          	or	a0,a4,a3
    c9cc:	00000793          	li	a5,0
    c9d0:	f95ff06f          	j	c964 <__adddf3+0x64c>
    c9d4:	40e40433          	sub	s0,s0,a4
    c9d8:	ff800737          	lui	a4,0xff800
    c9dc:	fff70713          	addi	a4,a4,-1 # ff7fffff <__heap_end+0xff7b7fff>
    c9e0:	00e7f7b3          	and	a5,a5,a4
    c9e4:	bf1ff06f          	j	c5d4 <__adddf3+0x2bc>
    c9e8:	00070793          	mv	a5,a4
    c9ec:	00060513          	mv	a0,a2
    c9f0:	00058413          	mv	s0,a1
    c9f4:	be1ff06f          	j	c5d4 <__adddf3+0x2bc>
    c9f8:	00070793          	mv	a5,a4
    c9fc:	00060513          	mv	a0,a2
    ca00:	bd5ff06f          	j	c5d4 <__adddf3+0x2bc>
    ca04:	7ff00413          	li	s0,2047
    ca08:	00000793          	li	a5,0
    ca0c:	00000513          	li	a0,0
    ca10:	00800737          	lui	a4,0x800
    ca14:	00e7f733          	and	a4,a5,a4
    ca18:	00070e63          	beqz	a4,ca34 <__adddf3+0x71c>
    ca1c:	00140413          	addi	s0,s0,1
    ca20:	7ff00713          	li	a4,2047
    ca24:	0ce40263          	beq	s0,a4,cae8 <__adddf3+0x7d0>
    ca28:	ff800737          	lui	a4,0xff800
    ca2c:	fff70713          	addi	a4,a4,-1 # ff7fffff <__heap_end+0xff7b7fff>
    ca30:	00e7f7b3          	and	a5,a5,a4
    ca34:	01d79693          	slli	a3,a5,0x1d
    ca38:	00355513          	srli	a0,a0,0x3
    ca3c:	7ff00713          	li	a4,2047
    ca40:	00a6e6b3          	or	a3,a3,a0
    ca44:	0037d793          	srli	a5,a5,0x3
    ca48:	00e41e63          	bne	s0,a4,ca64 <__adddf3+0x74c>
    ca4c:	00f6e6b3          	or	a3,a3,a5
    ca50:	00000793          	li	a5,0
    ca54:	00068863          	beqz	a3,ca64 <__adddf3+0x74c>
    ca58:	000807b7          	lui	a5,0x80
    ca5c:	00000693          	li	a3,0
    ca60:	00000493          	li	s1,0
    ca64:	01441713          	slli	a4,s0,0x14
    ca68:	7ff00637          	lui	a2,0x7ff00
    ca6c:	00c79793          	slli	a5,a5,0xc
    ca70:	01c12083          	lw	ra,28(sp)
    ca74:	01812403          	lw	s0,24(sp)
    ca78:	00c77733          	and	a4,a4,a2
    ca7c:	00c7d793          	srli	a5,a5,0xc
    ca80:	01f49493          	slli	s1,s1,0x1f
    ca84:	00f767b3          	or	a5,a4,a5
    ca88:	0097e733          	or	a4,a5,s1
    ca8c:	01012903          	lw	s2,16(sp)
    ca90:	01412483          	lw	s1,20(sp)
    ca94:	00c12983          	lw	s3,12(sp)
    ca98:	00068513          	mv	a0,a3
    ca9c:	00070593          	mv	a1,a4
    caa0:	02010113          	addi	sp,sp,32
    caa4:	00008067          	ret
    caa8:	00080413          	mv	s0,a6
    caac:	b29ff06f          	j	c5d4 <__adddf3+0x2bc>
    cab0:	00070793          	mv	a5,a4
    cab4:	00060513          	mv	a0,a2
    cab8:	00080413          	mv	s0,a6
    cabc:	da1ff06f          	j	c85c <__adddf3+0x544>
    cac0:	00000793          	li	a5,0
    cac4:	00000513          	li	a0,0
    cac8:	00000493          	li	s1,0
    cacc:	f45ff06f          	j	ca10 <__adddf3+0x6f8>
    cad0:	00000793          	li	a5,0
    cad4:	ff5ff06f          	j	cac8 <__adddf3+0x7b0>
    cad8:	00000513          	li	a0,0
    cadc:	00000493          	li	s1,0
    cae0:	004007b7          	lui	a5,0x400
    cae4:	b31ff06f          	j	c614 <__adddf3+0x2fc>
    cae8:	00000793          	li	a5,0
    caec:	00000513          	li	a0,0
    caf0:	f45ff06f          	j	ca34 <__adddf3+0x71c>

0000caf4 <__divdf3>:
    caf4:	fd010113          	addi	sp,sp,-48
    caf8:	0145d813          	srli	a6,a1,0x14
    cafc:	02912223          	sw	s1,36(sp)
    cb00:	01312e23          	sw	s3,28(sp)
    cb04:	01412c23          	sw	s4,24(sp)
    cb08:	01612823          	sw	s6,16(sp)
    cb0c:	01812423          	sw	s8,8(sp)
    cb10:	00c59493          	slli	s1,a1,0xc
    cb14:	02112623          	sw	ra,44(sp)
    cb18:	02812423          	sw	s0,40(sp)
    cb1c:	03212023          	sw	s2,32(sp)
    cb20:	01512a23          	sw	s5,20(sp)
    cb24:	01712623          	sw	s7,12(sp)
    cb28:	7ff87813          	andi	a6,a6,2047
    cb2c:	00050a13          	mv	s4,a0
    cb30:	00060b13          	mv	s6,a2
    cb34:	00068c13          	mv	s8,a3
    cb38:	00c4d493          	srli	s1,s1,0xc
    cb3c:	01f5d993          	srli	s3,a1,0x1f
    cb40:	0a080063          	beqz	a6,cbe0 <__divdf3+0xec>
    cb44:	7ff00793          	li	a5,2047
    cb48:	0ef80e63          	beq	a6,a5,cc44 <__divdf3+0x150>
    cb4c:	01d55a93          	srli	s5,a0,0x1d
    cb50:	00349493          	slli	s1,s1,0x3
    cb54:	009aeab3          	or	s5,s5,s1
    cb58:	008007b7          	lui	a5,0x800
    cb5c:	00faeab3          	or	s5,s5,a5
    cb60:	00351413          	slli	s0,a0,0x3
    cb64:	c0180913          	addi	s2,a6,-1023
    cb68:	00000b93          	li	s7,0
    cb6c:	014c5793          	srli	a5,s8,0x14
    cb70:	00cc1493          	slli	s1,s8,0xc
    cb74:	7ff7f793          	andi	a5,a5,2047
    cb78:	00c4d493          	srli	s1,s1,0xc
    cb7c:	01fc5c13          	srli	s8,s8,0x1f
    cb80:	10078063          	beqz	a5,cc80 <__divdf3+0x18c>
    cb84:	7ff00713          	li	a4,2047
    cb88:	16e78063          	beq	a5,a4,cce8 <__divdf3+0x1f4>
    cb8c:	00349493          	slli	s1,s1,0x3
    cb90:	01db5713          	srli	a4,s6,0x1d
    cb94:	00976733          	or	a4,a4,s1
    cb98:	008004b7          	lui	s1,0x800
    cb9c:	009764b3          	or	s1,a4,s1
    cba0:	003b1e93          	slli	t4,s6,0x3
    cba4:	c0178793          	addi	a5,a5,-1023 # 7ffc01 <__heap_end+0x7b7c01>
    cba8:	00000713          	li	a4,0
    cbac:	40f90833          	sub	a6,s2,a5
    cbb0:	002b9793          	slli	a5,s7,0x2
    cbb4:	00e7e7b3          	or	a5,a5,a4
    cbb8:	fff78793          	addi	a5,a5,-1
    cbbc:	00e00693          	li	a3,14
    cbc0:	0189c633          	xor	a2,s3,s8
    cbc4:	14f6ee63          	bltu	a3,a5,cd20 <__divdf3+0x22c>
    cbc8:	000286b7          	lui	a3,0x28
    cbcc:	00279793          	slli	a5,a5,0x2
    cbd0:	30068693          	addi	a3,a3,768 # 28300 <pow10.0+0x110>
    cbd4:	00d787b3          	add	a5,a5,a3
    cbd8:	0007a783          	lw	a5,0(a5)
    cbdc:	00078067          	jr	a5
    cbe0:	00a4eab3          	or	s5,s1,a0
    cbe4:	060a8e63          	beqz	s5,cc60 <__divdf3+0x16c>
    cbe8:	04048063          	beqz	s1,cc28 <__divdf3+0x134>
    cbec:	00048513          	mv	a0,s1
    cbf0:	055010ef          	jal	ra,e444 <__clzsi2>
    cbf4:	ff550793          	addi	a5,a0,-11
    cbf8:	01c00713          	li	a4,28
    cbfc:	02f74c63          	blt	a4,a5,cc34 <__divdf3+0x140>
    cc00:	01d00a93          	li	s5,29
    cc04:	ff850413          	addi	s0,a0,-8
    cc08:	40fa8ab3          	sub	s5,s5,a5
    cc0c:	008494b3          	sll	s1,s1,s0
    cc10:	015a5ab3          	srl	s5,s4,s5
    cc14:	009aeab3          	or	s5,s5,s1
    cc18:	008a1433          	sll	s0,s4,s0
    cc1c:	c0d00813          	li	a6,-1011
    cc20:	40a80933          	sub	s2,a6,a0
    cc24:	f45ff06f          	j	cb68 <__divdf3+0x74>
    cc28:	01d010ef          	jal	ra,e444 <__clzsi2>
    cc2c:	02050513          	addi	a0,a0,32
    cc30:	fc5ff06f          	j	cbf4 <__divdf3+0x100>
    cc34:	fd850a93          	addi	s5,a0,-40
    cc38:	015a1ab3          	sll	s5,s4,s5
    cc3c:	00000413          	li	s0,0
    cc40:	fddff06f          	j	cc1c <__divdf3+0x128>
    cc44:	00a4eab3          	or	s5,s1,a0
    cc48:	020a8463          	beqz	s5,cc70 <__divdf3+0x17c>
    cc4c:	00050413          	mv	s0,a0
    cc50:	00048a93          	mv	s5,s1
    cc54:	7ff00913          	li	s2,2047
    cc58:	00300b93          	li	s7,3
    cc5c:	f11ff06f          	j	cb6c <__divdf3+0x78>
    cc60:	00000413          	li	s0,0
    cc64:	00000913          	li	s2,0
    cc68:	00100b93          	li	s7,1
    cc6c:	f01ff06f          	j	cb6c <__divdf3+0x78>
    cc70:	00000413          	li	s0,0
    cc74:	7ff00913          	li	s2,2047
    cc78:	00200b93          	li	s7,2
    cc7c:	ef1ff06f          	j	cb6c <__divdf3+0x78>
    cc80:	0164eeb3          	or	t4,s1,s6
    cc84:	060e8e63          	beqz	t4,cd00 <__divdf3+0x20c>
    cc88:	04048063          	beqz	s1,ccc8 <__divdf3+0x1d4>
    cc8c:	00048513          	mv	a0,s1
    cc90:	7b4010ef          	jal	ra,e444 <__clzsi2>
    cc94:	ff550713          	addi	a4,a0,-11
    cc98:	01c00793          	li	a5,28
    cc9c:	02e7ce63          	blt	a5,a4,ccd8 <__divdf3+0x1e4>
    cca0:	01d00793          	li	a5,29
    cca4:	ff850e93          	addi	t4,a0,-8
    cca8:	40e787b3          	sub	a5,a5,a4
    ccac:	01d494b3          	sll	s1,s1,t4
    ccb0:	00fb57b3          	srl	a5,s6,a5
    ccb4:	0097e4b3          	or	s1,a5,s1
    ccb8:	01db1eb3          	sll	t4,s6,t4
    ccbc:	c0d00793          	li	a5,-1011
    ccc0:	40a787b3          	sub	a5,a5,a0
    ccc4:	ee5ff06f          	j	cba8 <__divdf3+0xb4>
    ccc8:	000b0513          	mv	a0,s6
    cccc:	778010ef          	jal	ra,e444 <__clzsi2>
    ccd0:	02050513          	addi	a0,a0,32
    ccd4:	fc1ff06f          	j	cc94 <__divdf3+0x1a0>
    ccd8:	fd850493          	addi	s1,a0,-40
    ccdc:	009b14b3          	sll	s1,s6,s1
    cce0:	00000e93          	li	t4,0
    cce4:	fd9ff06f          	j	ccbc <__divdf3+0x1c8>
    cce8:	0164eeb3          	or	t4,s1,s6
    ccec:	020e8263          	beqz	t4,cd10 <__divdf3+0x21c>
    ccf0:	000b0e93          	mv	t4,s6
    ccf4:	7ff00793          	li	a5,2047
    ccf8:	00300713          	li	a4,3
    ccfc:	eb1ff06f          	j	cbac <__divdf3+0xb8>
    cd00:	00000493          	li	s1,0
    cd04:	00000793          	li	a5,0
    cd08:	00100713          	li	a4,1
    cd0c:	ea1ff06f          	j	cbac <__divdf3+0xb8>
    cd10:	00000493          	li	s1,0
    cd14:	7ff00793          	li	a5,2047
    cd18:	00200713          	li	a4,2
    cd1c:	e91ff06f          	j	cbac <__divdf3+0xb8>
    cd20:	0154e663          	bltu	s1,s5,cd2c <__divdf3+0x238>
    cd24:	349a9e63          	bne	s5,s1,d080 <__divdf3+0x58c>
    cd28:	35d46c63          	bltu	s0,t4,d080 <__divdf3+0x58c>
    cd2c:	01fa9713          	slli	a4,s5,0x1f
    cd30:	00145793          	srli	a5,s0,0x1
    cd34:	01f41f13          	slli	t5,s0,0x1f
    cd38:	001ada93          	srli	s5,s5,0x1
    cd3c:	00f76433          	or	s0,a4,a5
    cd40:	00849513          	slli	a0,s1,0x8
    cd44:	018ed693          	srli	a3,t4,0x18
    cd48:	00a6e6b3          	or	a3,a3,a0
    cd4c:	01055513          	srli	a0,a0,0x10
    cd50:	02aade33          	divu	t3,s5,a0
    cd54:	01069313          	slli	t1,a3,0x10
    cd58:	01035313          	srli	t1,t1,0x10
    cd5c:	01045793          	srli	a5,s0,0x10
    cd60:	008e9593          	slli	a1,t4,0x8
    cd64:	02aafab3          	remu	s5,s5,a0
    cd68:	000e0713          	mv	a4,t3
    cd6c:	03c308b3          	mul	a7,t1,t3
    cd70:	010a9a93          	slli	s5,s5,0x10
    cd74:	0157e7b3          	or	a5,a5,s5
    cd78:	0117fe63          	bgeu	a5,a7,cd94 <__divdf3+0x2a0>
    cd7c:	00d787b3          	add	a5,a5,a3
    cd80:	fffe0713          	addi	a4,t3,-1
    cd84:	00d7e863          	bltu	a5,a3,cd94 <__divdf3+0x2a0>
    cd88:	0117f663          	bgeu	a5,a7,cd94 <__divdf3+0x2a0>
    cd8c:	ffee0713          	addi	a4,t3,-2
    cd90:	00d787b3          	add	a5,a5,a3
    cd94:	411787b3          	sub	a5,a5,a7
    cd98:	02a7de33          	divu	t3,a5,a0
    cd9c:	01041413          	slli	s0,s0,0x10
    cda0:	01045413          	srli	s0,s0,0x10
    cda4:	02a7f7b3          	remu	a5,a5,a0
    cda8:	03c308b3          	mul	a7,t1,t3
    cdac:	01079793          	slli	a5,a5,0x10
    cdb0:	00f46433          	or	s0,s0,a5
    cdb4:	000e0793          	mv	a5,t3
    cdb8:	01147e63          	bgeu	s0,a7,cdd4 <__divdf3+0x2e0>
    cdbc:	00d40433          	add	s0,s0,a3
    cdc0:	fffe0793          	addi	a5,t3,-1
    cdc4:	00d46863          	bltu	s0,a3,cdd4 <__divdf3+0x2e0>
    cdc8:	01147663          	bgeu	s0,a7,cdd4 <__divdf3+0x2e0>
    cdcc:	ffee0793          	addi	a5,t3,-2
    cdd0:	00d40433          	add	s0,s0,a3
    cdd4:	01071713          	slli	a4,a4,0x10
    cdd8:	000103b7          	lui	t2,0x10
    cddc:	00f76fb3          	or	t6,a4,a5
    cde0:	41140433          	sub	s0,s0,a7
    cde4:	fff38893          	addi	a7,t2,-1 # ffff <_end_text+0x18bf>
    cde8:	011ff7b3          	and	a5,t6,a7
    cdec:	010fde93          	srli	t4,t6,0x10
    cdf0:	0105de13          	srli	t3,a1,0x10
    cdf4:	0115f8b3          	and	a7,a1,a7
    cdf8:	02f882b3          	mul	t0,a7,a5
    cdfc:	031e84b3          	mul	s1,t4,a7
    ce00:	0102d713          	srli	a4,t0,0x10
    ce04:	02fe07b3          	mul	a5,t3,a5
    ce08:	009787b3          	add	a5,a5,s1
    ce0c:	00f70733          	add	a4,a4,a5
    ce10:	03ce8eb3          	mul	t4,t4,t3
    ce14:	00977463          	bgeu	a4,s1,ce1c <__divdf3+0x328>
    ce18:	007e8eb3          	add	t4,t4,t2
    ce1c:	01075793          	srli	a5,a4,0x10
    ce20:	01d787b3          	add	a5,a5,t4
    ce24:	00010eb7          	lui	t4,0x10
    ce28:	fffe8e93          	addi	t4,t4,-1 # ffff <_end_text+0x18bf>
    ce2c:	01d77733          	and	a4,a4,t4
    ce30:	01071713          	slli	a4,a4,0x10
    ce34:	01d2f2b3          	and	t0,t0,t4
    ce38:	00570733          	add	a4,a4,t0
    ce3c:	00f46863          	bltu	s0,a5,ce4c <__divdf3+0x358>
    ce40:	000f8493          	mv	s1,t6
    ce44:	04f41463          	bne	s0,a5,ce8c <__divdf3+0x398>
    ce48:	04ef7263          	bgeu	t5,a4,ce8c <__divdf3+0x398>
    ce4c:	00bf0f33          	add	t5,t5,a1
    ce50:	00bf3eb3          	sltu	t4,t5,a1
    ce54:	00de8eb3          	add	t4,t4,a3
    ce58:	01d40433          	add	s0,s0,t4
    ce5c:	ffff8493          	addi	s1,t6,-1
    ce60:	0086e663          	bltu	a3,s0,ce6c <__divdf3+0x378>
    ce64:	02869463          	bne	a3,s0,ce8c <__divdf3+0x398>
    ce68:	02bf6263          	bltu	t5,a1,ce8c <__divdf3+0x398>
    ce6c:	00f46663          	bltu	s0,a5,ce78 <__divdf3+0x384>
    ce70:	00879e63          	bne	a5,s0,ce8c <__divdf3+0x398>
    ce74:	00ef7c63          	bgeu	t5,a4,ce8c <__divdf3+0x398>
    ce78:	00bf0f33          	add	t5,t5,a1
    ce7c:	00bf3eb3          	sltu	t4,t5,a1
    ce80:	00de8eb3          	add	t4,t4,a3
    ce84:	ffef8493          	addi	s1,t6,-2
    ce88:	01d40433          	add	s0,s0,t4
    ce8c:	40ef0733          	sub	a4,t5,a4
    ce90:	40f40433          	sub	s0,s0,a5
    ce94:	00ef37b3          	sltu	a5,t5,a4
    ce98:	40f40433          	sub	s0,s0,a5
    ce9c:	fff00e93          	li	t4,-1
    cea0:	12868463          	beq	a3,s0,cfc8 <__divdf3+0x4d4>
    cea4:	02a45fb3          	divu	t6,s0,a0
    cea8:	01075793          	srli	a5,a4,0x10
    ceac:	02a47433          	remu	s0,s0,a0
    ceb0:	000f8e93          	mv	t4,t6
    ceb4:	03f30f33          	mul	t5,t1,t6
    ceb8:	01041413          	slli	s0,s0,0x10
    cebc:	0087e7b3          	or	a5,a5,s0
    cec0:	01e7fe63          	bgeu	a5,t5,cedc <__divdf3+0x3e8>
    cec4:	00d787b3          	add	a5,a5,a3
    cec8:	ffff8e93          	addi	t4,t6,-1
    cecc:	00d7e863          	bltu	a5,a3,cedc <__divdf3+0x3e8>
    ced0:	01e7f663          	bgeu	a5,t5,cedc <__divdf3+0x3e8>
    ced4:	ffef8e93          	addi	t4,t6,-2
    ced8:	00d787b3          	add	a5,a5,a3
    cedc:	41e787b3          	sub	a5,a5,t5
    cee0:	02a7df33          	divu	t5,a5,a0
    cee4:	01071713          	slli	a4,a4,0x10
    cee8:	01075713          	srli	a4,a4,0x10
    ceec:	02a7f7b3          	remu	a5,a5,a0
    cef0:	000f0513          	mv	a0,t5
    cef4:	03e30333          	mul	t1,t1,t5
    cef8:	01079793          	slli	a5,a5,0x10
    cefc:	00f76733          	or	a4,a4,a5
    cf00:	00677e63          	bgeu	a4,t1,cf1c <__divdf3+0x428>
    cf04:	00d70733          	add	a4,a4,a3
    cf08:	ffff0513          	addi	a0,t5,-1
    cf0c:	00d76863          	bltu	a4,a3,cf1c <__divdf3+0x428>
    cf10:	00677663          	bgeu	a4,t1,cf1c <__divdf3+0x428>
    cf14:	ffef0513          	addi	a0,t5,-2
    cf18:	00d70733          	add	a4,a4,a3
    cf1c:	010e9793          	slli	a5,t4,0x10
    cf20:	00a7e7b3          	or	a5,a5,a0
    cf24:	01079513          	slli	a0,a5,0x10
    cf28:	01055513          	srli	a0,a0,0x10
    cf2c:	40670733          	sub	a4,a4,t1
    cf30:	0107d313          	srli	t1,a5,0x10
    cf34:	03150eb3          	mul	t4,a0,a7
    cf38:	031308b3          	mul	a7,t1,a7
    cf3c:	026e0333          	mul	t1,t3,t1
    cf40:	02ae0e33          	mul	t3,t3,a0
    cf44:	010ed513          	srli	a0,t4,0x10
    cf48:	011e0e33          	add	t3,t3,a7
    cf4c:	01c50533          	add	a0,a0,t3
    cf50:	01157663          	bgeu	a0,a7,cf5c <__divdf3+0x468>
    cf54:	000108b7          	lui	a7,0x10
    cf58:	01130333          	add	t1,t1,a7
    cf5c:	01055893          	srli	a7,a0,0x10
    cf60:	006888b3          	add	a7,a7,t1
    cf64:	00010337          	lui	t1,0x10
    cf68:	fff30313          	addi	t1,t1,-1 # ffff <_end_text+0x18bf>
    cf6c:	00657533          	and	a0,a0,t1
    cf70:	01051513          	slli	a0,a0,0x10
    cf74:	006efeb3          	and	t4,t4,t1
    cf78:	01d50533          	add	a0,a0,t4
    cf7c:	01176863          	bltu	a4,a7,cf8c <__divdf3+0x498>
    cf80:	25171463          	bne	a4,a7,d1c8 <__divdf3+0x6d4>
    cf84:	00078e93          	mv	t4,a5
    cf88:	04050063          	beqz	a0,cfc8 <__divdf3+0x4d4>
    cf8c:	00e68733          	add	a4,a3,a4
    cf90:	fff78e93          	addi	t4,a5,-1
    cf94:	02d76463          	bltu	a4,a3,cfbc <__divdf3+0x4c8>
    cf98:	01176663          	bltu	a4,a7,cfa4 <__divdf3+0x4b0>
    cf9c:	23171463          	bne	a4,a7,d1c4 <__divdf3+0x6d0>
    cfa0:	02a5f063          	bgeu	a1,a0,cfc0 <__divdf3+0x4cc>
    cfa4:	ffe78e93          	addi	t4,a5,-2
    cfa8:	00159793          	slli	a5,a1,0x1
    cfac:	00b7b5b3          	sltu	a1,a5,a1
    cfb0:	00d585b3          	add	a1,a1,a3
    cfb4:	00b70733          	add	a4,a4,a1
    cfb8:	00078593          	mv	a1,a5
    cfbc:	01171463          	bne	a4,a7,cfc4 <__divdf3+0x4d0>
    cfc0:	00b50463          	beq	a0,a1,cfc8 <__divdf3+0x4d4>
    cfc4:	001eee93          	ori	t4,t4,1
    cfc8:	3ff80793          	addi	a5,a6,1023
    cfcc:	10f05a63          	blez	a5,d0e0 <__divdf3+0x5ec>
    cfd0:	007ef713          	andi	a4,t4,7
    cfd4:	02070063          	beqz	a4,cff4 <__divdf3+0x500>
    cfd8:	00fef713          	andi	a4,t4,15
    cfdc:	00400693          	li	a3,4
    cfe0:	00d70a63          	beq	a4,a3,cff4 <__divdf3+0x500>
    cfe4:	004e8713          	addi	a4,t4,4
    cfe8:	01d73eb3          	sltu	t4,a4,t4
    cfec:	01d484b3          	add	s1,s1,t4
    cff0:	00070e93          	mv	t4,a4
    cff4:	01000737          	lui	a4,0x1000
    cff8:	00e4f733          	and	a4,s1,a4
    cffc:	00070a63          	beqz	a4,d010 <__divdf3+0x51c>
    d000:	ff0007b7          	lui	a5,0xff000
    d004:	fff78793          	addi	a5,a5,-1 # feffffff <__heap_end+0xfefb7fff>
    d008:	00f4f4b3          	and	s1,s1,a5
    d00c:	40080793          	addi	a5,a6,1024
    d010:	7fe00713          	li	a4,2046
    d014:	0af74063          	blt	a4,a5,d0b4 <__divdf3+0x5c0>
    d018:	003ede93          	srli	t4,t4,0x3
    d01c:	01d49713          	slli	a4,s1,0x1d
    d020:	01d76733          	or	a4,a4,t4
    d024:	0034d513          	srli	a0,s1,0x3
    d028:	7ff006b7          	lui	a3,0x7ff00
    d02c:	01479793          	slli	a5,a5,0x14
    d030:	00c51513          	slli	a0,a0,0xc
    d034:	02c12083          	lw	ra,44(sp)
    d038:	02812403          	lw	s0,40(sp)
    d03c:	00d7f7b3          	and	a5,a5,a3
    d040:	00c55513          	srli	a0,a0,0xc
    d044:	00a7e7b3          	or	a5,a5,a0
    d048:	01f61613          	slli	a2,a2,0x1f
    d04c:	00c7e6b3          	or	a3,a5,a2
    d050:	02412483          	lw	s1,36(sp)
    d054:	02012903          	lw	s2,32(sp)
    d058:	01c12983          	lw	s3,28(sp)
    d05c:	01812a03          	lw	s4,24(sp)
    d060:	01412a83          	lw	s5,20(sp)
    d064:	01012b03          	lw	s6,16(sp)
    d068:	00c12b83          	lw	s7,12(sp)
    d06c:	00812c03          	lw	s8,8(sp)
    d070:	00070513          	mv	a0,a4
    d074:	00068593          	mv	a1,a3
    d078:	03010113          	addi	sp,sp,48
    d07c:	00008067          	ret
    d080:	fff80813          	addi	a6,a6,-1
    d084:	00000f13          	li	t5,0
    d088:	cb9ff06f          	j	cd40 <__divdf3+0x24c>
    d08c:	00098613          	mv	a2,s3
    d090:	000a8493          	mv	s1,s5
    d094:	00040e93          	mv	t4,s0
    d098:	000b8713          	mv	a4,s7
    d09c:	00300793          	li	a5,3
    d0a0:	10f70063          	beq	a4,a5,d1a0 <__divdf3+0x6ac>
    d0a4:	00100793          	li	a5,1
    d0a8:	0ef70663          	beq	a4,a5,d194 <__divdf3+0x6a0>
    d0ac:	00200793          	li	a5,2
    d0b0:	f0f71ce3          	bne	a4,a5,cfc8 <__divdf3+0x4d4>
    d0b4:	00000513          	li	a0,0
    d0b8:	00000713          	li	a4,0
    d0bc:	7ff00793          	li	a5,2047
    d0c0:	f69ff06f          	j	d028 <__divdf3+0x534>
    d0c4:	000c0613          	mv	a2,s8
    d0c8:	fd5ff06f          	j	d09c <__divdf3+0x5a8>
    d0cc:	000804b7          	lui	s1,0x80
    d0d0:	00000e93          	li	t4,0
    d0d4:	00000613          	li	a2,0
    d0d8:	00300713          	li	a4,3
    d0dc:	fc1ff06f          	j	d09c <__divdf3+0x5a8>
    d0e0:	00100513          	li	a0,1
    d0e4:	40f50533          	sub	a0,a0,a5
    d0e8:	03800713          	li	a4,56
    d0ec:	0aa74463          	blt	a4,a0,d194 <__divdf3+0x6a0>
    d0f0:	01f00713          	li	a4,31
    d0f4:	06a74663          	blt	a4,a0,d160 <__divdf3+0x66c>
    d0f8:	41e80813          	addi	a6,a6,1054
    d0fc:	010497b3          	sll	a5,s1,a6
    d100:	00aed733          	srl	a4,t4,a0
    d104:	010e9833          	sll	a6,t4,a6
    d108:	00e7e7b3          	or	a5,a5,a4
    d10c:	01003833          	snez	a6,a6
    d110:	0107e7b3          	or	a5,a5,a6
    d114:	00a4d533          	srl	a0,s1,a0
    d118:	0077f713          	andi	a4,a5,7
    d11c:	02070063          	beqz	a4,d13c <__divdf3+0x648>
    d120:	00f7f713          	andi	a4,a5,15
    d124:	00400693          	li	a3,4
    d128:	00d70a63          	beq	a4,a3,d13c <__divdf3+0x648>
    d12c:	00478713          	addi	a4,a5,4
    d130:	00f737b3          	sltu	a5,a4,a5
    d134:	00f50533          	add	a0,a0,a5
    d138:	00070793          	mv	a5,a4
    d13c:	00800737          	lui	a4,0x800
    d140:	00e57733          	and	a4,a0,a4
    d144:	06071863          	bnez	a4,d1b4 <__divdf3+0x6c0>
    d148:	01d51713          	slli	a4,a0,0x1d
    d14c:	0037d793          	srli	a5,a5,0x3
    d150:	00f76733          	or	a4,a4,a5
    d154:	00355513          	srli	a0,a0,0x3
    d158:	00000793          	li	a5,0
    d15c:	ecdff06f          	j	d028 <__divdf3+0x534>
    d160:	fe100713          	li	a4,-31
    d164:	40f707b3          	sub	a5,a4,a5
    d168:	02000693          	li	a3,32
    d16c:	00f4d7b3          	srl	a5,s1,a5
    d170:	00000713          	li	a4,0
    d174:	00d50663          	beq	a0,a3,d180 <__divdf3+0x68c>
    d178:	43e80713          	addi	a4,a6,1086
    d17c:	00e49733          	sll	a4,s1,a4
    d180:	01d76733          	or	a4,a4,t4
    d184:	00e03733          	snez	a4,a4
    d188:	00e7e7b3          	or	a5,a5,a4
    d18c:	00000513          	li	a0,0
    d190:	f89ff06f          	j	d118 <__divdf3+0x624>
    d194:	00000513          	li	a0,0
    d198:	00000713          	li	a4,0
    d19c:	fbdff06f          	j	d158 <__divdf3+0x664>
    d1a0:	00080537          	lui	a0,0x80
    d1a4:	00000713          	li	a4,0
    d1a8:	7ff00793          	li	a5,2047
    d1ac:	00000613          	li	a2,0
    d1b0:	e79ff06f          	j	d028 <__divdf3+0x534>
    d1b4:	00000513          	li	a0,0
    d1b8:	00000713          	li	a4,0
    d1bc:	00100793          	li	a5,1
    d1c0:	e69ff06f          	j	d028 <__divdf3+0x534>
    d1c4:	000e8793          	mv	a5,t4
    d1c8:	00078e93          	mv	t4,a5
    d1cc:	df9ff06f          	j	cfc4 <__divdf3+0x4d0>

0000d1d0 <__eqdf2>:
    d1d0:	0145d713          	srli	a4,a1,0x14
    d1d4:	001007b7          	lui	a5,0x100
    d1d8:	fff78793          	addi	a5,a5,-1 # fffff <__heap_end+0xb7fff>
    d1dc:	0146d813          	srli	a6,a3,0x14
    d1e0:	00050313          	mv	t1,a0
    d1e4:	00050e93          	mv	t4,a0
    d1e8:	7ff77713          	andi	a4,a4,2047
    d1ec:	7ff00513          	li	a0,2047
    d1f0:	00b7f8b3          	and	a7,a5,a1
    d1f4:	00060f13          	mv	t5,a2
    d1f8:	00d7f7b3          	and	a5,a5,a3
    d1fc:	01f5d593          	srli	a1,a1,0x1f
    d200:	7ff87813          	andi	a6,a6,2047
    d204:	01f6d693          	srli	a3,a3,0x1f
    d208:	00a71c63          	bne	a4,a0,d220 <__eqdf2+0x50>
    d20c:	0068ee33          	or	t3,a7,t1
    d210:	00100513          	li	a0,1
    d214:	000e1463          	bnez	t3,d21c <__eqdf2+0x4c>
    d218:	00e80663          	beq	a6,a4,d224 <__eqdf2+0x54>
    d21c:	00008067          	ret
    d220:	00a81863          	bne	a6,a0,d230 <__eqdf2+0x60>
    d224:	00c7e633          	or	a2,a5,a2
    d228:	00100513          	li	a0,1
    d22c:	fe0618e3          	bnez	a2,d21c <__eqdf2+0x4c>
    d230:	00100513          	li	a0,1
    d234:	ff0714e3          	bne	a4,a6,d21c <__eqdf2+0x4c>
    d238:	fef892e3          	bne	a7,a5,d21c <__eqdf2+0x4c>
    d23c:	ffee90e3          	bne	t4,t5,d21c <__eqdf2+0x4c>
    d240:	00d58a63          	beq	a1,a3,d254 <__eqdf2+0x84>
    d244:	fc071ce3          	bnez	a4,d21c <__eqdf2+0x4c>
    d248:	0068e8b3          	or	a7,a7,t1
    d24c:	01103533          	snez	a0,a7
    d250:	00008067          	ret
    d254:	00000513          	li	a0,0
    d258:	00008067          	ret

0000d25c <__gedf2>:
    d25c:	00100737          	lui	a4,0x100
    d260:	fff70713          	addi	a4,a4,-1 # fffff <__heap_end+0xb7fff>
    d264:	0145d813          	srli	a6,a1,0x14
    d268:	00b778b3          	and	a7,a4,a1
    d26c:	00050793          	mv	a5,a0
    d270:	00050313          	mv	t1,a0
    d274:	7ff87813          	andi	a6,a6,2047
    d278:	01f5d513          	srli	a0,a1,0x1f
    d27c:	7ff00e93          	li	t4,2047
    d280:	0146d593          	srli	a1,a3,0x14
    d284:	00d77733          	and	a4,a4,a3
    d288:	00060e13          	mv	t3,a2
    d28c:	7ff5f593          	andi	a1,a1,2047
    d290:	01f6d693          	srli	a3,a3,0x1f
    d294:	01d81a63          	bne	a6,t4,d2a8 <__gedf2+0x4c>
    d298:	00f8eeb3          	or	t4,a7,a5
    d29c:	080e8a63          	beqz	t4,d330 <__gedf2+0xd4>
    d2a0:	ffe00513          	li	a0,-2
    d2a4:	00008067          	ret
    d2a8:	01d59663          	bne	a1,t4,d2b4 <__gedf2+0x58>
    d2ac:	00c76eb3          	or	t4,a4,a2
    d2b0:	fe0e98e3          	bnez	t4,d2a0 <__gedf2+0x44>
    d2b4:	08081063          	bnez	a6,d334 <__gedf2+0xd8>
    d2b8:	00f8e7b3          	or	a5,a7,a5
    d2bc:	0017b793          	seqz	a5,a5
    d2c0:	00059663          	bnez	a1,d2cc <__gedf2+0x70>
    d2c4:	00c76633          	or	a2,a4,a2
    d2c8:	04060c63          	beqz	a2,d320 <__gedf2+0xc4>
    d2cc:	00079c63          	bnez	a5,d2e4 <__gedf2+0x88>
    d2d0:	00d51463          	bne	a0,a3,d2d8 <__gedf2+0x7c>
    d2d4:	0305d063          	bge	a1,a6,d2f4 <__gedf2+0x98>
    d2d8:	04050063          	beqz	a0,d318 <__gedf2+0xbc>
    d2dc:	fff00513          	li	a0,-1
    d2e0:	00008067          	ret
    d2e4:	fff00513          	li	a0,-1
    d2e8:	00068a63          	beqz	a3,d2fc <__gedf2+0xa0>
    d2ec:	00068513          	mv	a0,a3
    d2f0:	00008067          	ret
    d2f4:	00b85663          	bge	a6,a1,d300 <__gedf2+0xa4>
    d2f8:	fe0502e3          	beqz	a0,d2dc <__gedf2+0x80>
    d2fc:	00008067          	ret
    d300:	fd176ce3          	bltu	a4,a7,d2d8 <__gedf2+0x7c>
    d304:	02e89263          	bne	a7,a4,d328 <__gedf2+0xcc>
    d308:	fc6e68e3          	bltu	t3,t1,d2d8 <__gedf2+0x7c>
    d30c:	ffc366e3          	bltu	t1,t3,d2f8 <__gedf2+0x9c>
    d310:	00000513          	li	a0,0
    d314:	00008067          	ret
    d318:	00100513          	li	a0,1
    d31c:	00008067          	ret
    d320:	fe0798e3          	bnez	a5,d310 <__gedf2+0xb4>
    d324:	fb5ff06f          	j	d2d8 <__gedf2+0x7c>
    d328:	fce8e8e3          	bltu	a7,a4,d2f8 <__gedf2+0x9c>
    d32c:	fe5ff06f          	j	d310 <__gedf2+0xb4>
    d330:	f7058ee3          	beq	a1,a6,d2ac <__gedf2+0x50>
    d334:	f8059ee3          	bnez	a1,d2d0 <__gedf2+0x74>
    d338:	00000793          	li	a5,0
    d33c:	f89ff06f          	j	d2c4 <__gedf2+0x68>

0000d340 <__ledf2>:
    d340:	00100737          	lui	a4,0x100
    d344:	fff70713          	addi	a4,a4,-1 # fffff <__heap_end+0xb7fff>
    d348:	0145d813          	srli	a6,a1,0x14
    d34c:	00b778b3          	and	a7,a4,a1
    d350:	00050793          	mv	a5,a0
    d354:	00050313          	mv	t1,a0
    d358:	7ff87813          	andi	a6,a6,2047
    d35c:	01f5d513          	srli	a0,a1,0x1f
    d360:	7ff00e93          	li	t4,2047
    d364:	0146d593          	srli	a1,a3,0x14
    d368:	00d77733          	and	a4,a4,a3
    d36c:	00060e13          	mv	t3,a2
    d370:	7ff5f593          	andi	a1,a1,2047
    d374:	01f6d693          	srli	a3,a3,0x1f
    d378:	01d81a63          	bne	a6,t4,d38c <__ledf2+0x4c>
    d37c:	00f8eeb3          	or	t4,a7,a5
    d380:	080e8a63          	beqz	t4,d414 <__ledf2+0xd4>
    d384:	00200513          	li	a0,2
    d388:	00008067          	ret
    d38c:	01d59663          	bne	a1,t4,d398 <__ledf2+0x58>
    d390:	00c76eb3          	or	t4,a4,a2
    d394:	fe0e98e3          	bnez	t4,d384 <__ledf2+0x44>
    d398:	08081063          	bnez	a6,d418 <__ledf2+0xd8>
    d39c:	00f8e7b3          	or	a5,a7,a5
    d3a0:	0017b793          	seqz	a5,a5
    d3a4:	00059663          	bnez	a1,d3b0 <__ledf2+0x70>
    d3a8:	00c76633          	or	a2,a4,a2
    d3ac:	04060c63          	beqz	a2,d404 <__ledf2+0xc4>
    d3b0:	00079c63          	bnez	a5,d3c8 <__ledf2+0x88>
    d3b4:	00d51463          	bne	a0,a3,d3bc <__ledf2+0x7c>
    d3b8:	0305d063          	bge	a1,a6,d3d8 <__ledf2+0x98>
    d3bc:	04050063          	beqz	a0,d3fc <__ledf2+0xbc>
    d3c0:	fff00513          	li	a0,-1
    d3c4:	00008067          	ret
    d3c8:	fff00513          	li	a0,-1
    d3cc:	00068a63          	beqz	a3,d3e0 <__ledf2+0xa0>
    d3d0:	00068513          	mv	a0,a3
    d3d4:	00008067          	ret
    d3d8:	00b85663          	bge	a6,a1,d3e4 <__ledf2+0xa4>
    d3dc:	fe0502e3          	beqz	a0,d3c0 <__ledf2+0x80>
    d3e0:	00008067          	ret
    d3e4:	fd176ce3          	bltu	a4,a7,d3bc <__ledf2+0x7c>
    d3e8:	02e89263          	bne	a7,a4,d40c <__ledf2+0xcc>
    d3ec:	fc6e68e3          	bltu	t3,t1,d3bc <__ledf2+0x7c>
    d3f0:	ffc366e3          	bltu	t1,t3,d3dc <__ledf2+0x9c>
    d3f4:	00000513          	li	a0,0
    d3f8:	00008067          	ret
    d3fc:	00100513          	li	a0,1
    d400:	00008067          	ret
    d404:	fe0798e3          	bnez	a5,d3f4 <__ledf2+0xb4>
    d408:	fb5ff06f          	j	d3bc <__ledf2+0x7c>
    d40c:	fce8e8e3          	bltu	a7,a4,d3dc <__ledf2+0x9c>
    d410:	fe5ff06f          	j	d3f4 <__ledf2+0xb4>
    d414:	f7058ee3          	beq	a1,a6,d390 <__ledf2+0x50>
    d418:	f8059ee3          	bnez	a1,d3b4 <__ledf2+0x74>
    d41c:	00000793          	li	a5,0
    d420:	f89ff06f          	j	d3a8 <__ledf2+0x68>

0000d424 <__muldf3>:
    d424:	fd010113          	addi	sp,sp,-48
    d428:	01312e23          	sw	s3,28(sp)
    d42c:	0145d993          	srli	s3,a1,0x14
    d430:	02812423          	sw	s0,40(sp)
    d434:	02912223          	sw	s1,36(sp)
    d438:	01412c23          	sw	s4,24(sp)
    d43c:	01512a23          	sw	s5,20(sp)
    d440:	01712623          	sw	s7,12(sp)
    d444:	00c59493          	slli	s1,a1,0xc
    d448:	02112623          	sw	ra,44(sp)
    d44c:	03212023          	sw	s2,32(sp)
    d450:	01612823          	sw	s6,16(sp)
    d454:	7ff9f993          	andi	s3,s3,2047
    d458:	00050413          	mv	s0,a0
    d45c:	00060b93          	mv	s7,a2
    d460:	00068a93          	mv	s5,a3
    d464:	00c4d493          	srli	s1,s1,0xc
    d468:	01f5da13          	srli	s4,a1,0x1f
    d46c:	30098863          	beqz	s3,d77c <__muldf3+0x358>
    d470:	7ff00793          	li	a5,2047
    d474:	36f98663          	beq	s3,a5,d7e0 <__muldf3+0x3bc>
    d478:	00349493          	slli	s1,s1,0x3
    d47c:	01d55793          	srli	a5,a0,0x1d
    d480:	0097e7b3          	or	a5,a5,s1
    d484:	008004b7          	lui	s1,0x800
    d488:	0097e4b3          	or	s1,a5,s1
    d48c:	00351913          	slli	s2,a0,0x3
    d490:	c0198993          	addi	s3,s3,-1023
    d494:	00000b13          	li	s6,0
    d498:	014ad713          	srli	a4,s5,0x14
    d49c:	00ca9413          	slli	s0,s5,0xc
    d4a0:	7ff77713          	andi	a4,a4,2047
    d4a4:	00c45413          	srli	s0,s0,0xc
    d4a8:	01fada93          	srli	s5,s5,0x1f
    d4ac:	36070663          	beqz	a4,d818 <__muldf3+0x3f4>
    d4b0:	7ff00793          	li	a5,2047
    d4b4:	3cf70663          	beq	a4,a5,d880 <__muldf3+0x45c>
    d4b8:	00341413          	slli	s0,s0,0x3
    d4bc:	01dbd793          	srli	a5,s7,0x1d
    d4c0:	0087e7b3          	or	a5,a5,s0
    d4c4:	00800437          	lui	s0,0x800
    d4c8:	0087e433          	or	s0,a5,s0
    d4cc:	c0170713          	addi	a4,a4,-1023
    d4d0:	003b9793          	slli	a5,s7,0x3
    d4d4:	00000513          	li	a0,0
    d4d8:	00e989b3          	add	s3,s3,a4
    d4dc:	002b1713          	slli	a4,s6,0x2
    d4e0:	00a76733          	or	a4,a4,a0
    d4e4:	00a00693          	li	a3,10
    d4e8:	015a4633          	xor	a2,s4,s5
    d4ec:	00198593          	addi	a1,s3,1
    d4f0:	40e6c863          	blt	a3,a4,d900 <__muldf3+0x4dc>
    d4f4:	00200693          	li	a3,2
    d4f8:	3ce6c063          	blt	a3,a4,d8b8 <__muldf3+0x494>
    d4fc:	fff70713          	addi	a4,a4,-1
    d500:	00100693          	li	a3,1
    d504:	3ce6fc63          	bgeu	a3,a4,d8dc <__muldf3+0x4b8>
    d508:	00010e37          	lui	t3,0x10
    d50c:	fffe0313          	addi	t1,t3,-1 # ffff <_end_text+0x18bf>
    d510:	01095813          	srli	a6,s2,0x10
    d514:	0107d513          	srli	a0,a5,0x10
    d518:	00697933          	and	s2,s2,t1
    d51c:	0067feb3          	and	t4,a5,t1
    d520:	03d907b3          	mul	a5,s2,t4
    d524:	03d80f33          	mul	t5,a6,t4
    d528:	0107d713          	srli	a4,a5,0x10
    d52c:	032506b3          	mul	a3,a0,s2
    d530:	01e686b3          	add	a3,a3,t5
    d534:	00d70733          	add	a4,a4,a3
    d538:	02a808b3          	mul	a7,a6,a0
    d53c:	01e77463          	bgeu	a4,t5,d544 <__muldf3+0x120>
    d540:	01c888b3          	add	a7,a7,t3
    d544:	006776b3          	and	a3,a4,t1
    d548:	0067f7b3          	and	a5,a5,t1
    d54c:	01069693          	slli	a3,a3,0x10
    d550:	00647e33          	and	t3,s0,t1
    d554:	00f686b3          	add	a3,a3,a5
    d558:	01045793          	srli	a5,s0,0x10
    d55c:	01075293          	srli	t0,a4,0x10
    d560:	03c90f33          	mul	t5,s2,t3
    d564:	03c80333          	mul	t1,a6,t3
    d568:	010f5713          	srli	a4,t5,0x10
    d56c:	03278933          	mul	s2,a5,s2
    d570:	00690933          	add	s2,s2,t1
    d574:	01270733          	add	a4,a4,s2
    d578:	02f80833          	mul	a6,a6,a5
    d57c:	00677663          	bgeu	a4,t1,d588 <__muldf3+0x164>
    d580:	00010337          	lui	t1,0x10
    d584:	00680833          	add	a6,a6,t1
    d588:	00010937          	lui	s2,0x10
    d58c:	fff90f93          	addi	t6,s2,-1 # ffff <_end_text+0x18bf>
    d590:	01075313          	srli	t1,a4,0x10
    d594:	01ff7f33          	and	t5,t5,t6
    d598:	01f77733          	and	a4,a4,t6
    d59c:	0104d413          	srli	s0,s1,0x10
    d5a0:	01f4ffb3          	and	t6,s1,t6
    d5a4:	03fe83b3          	mul	t2,t4,t6
    d5a8:	01030333          	add	t1,t1,a6
    d5ac:	01071713          	slli	a4,a4,0x10
    d5b0:	01e70f33          	add	t5,a4,t5
    d5b4:	01e282b3          	add	t0,t0,t5
    d5b8:	03d40833          	mul	a6,s0,t4
    d5bc:	0103d713          	srli	a4,t2,0x10
    d5c0:	028504b3          	mul	s1,a0,s0
    d5c4:	03f50533          	mul	a0,a0,t6
    d5c8:	01050533          	add	a0,a0,a6
    d5cc:	00a70733          	add	a4,a4,a0
    d5d0:	01077463          	bgeu	a4,a6,d5d8 <__muldf3+0x1b4>
    d5d4:	012484b3          	add	s1,s1,s2
    d5d8:	01075e93          	srli	t4,a4,0x10
    d5dc:	009e8eb3          	add	t4,t4,s1
    d5e0:	000104b7          	lui	s1,0x10
    d5e4:	fff48513          	addi	a0,s1,-1 # ffff <_end_text+0x18bf>
    d5e8:	00a77733          	and	a4,a4,a0
    d5ec:	00a3f3b3          	and	t2,t2,a0
    d5f0:	01071713          	slli	a4,a4,0x10
    d5f4:	03c40533          	mul	a0,s0,t3
    d5f8:	00770733          	add	a4,a4,t2
    d5fc:	02878833          	mul	a6,a5,s0
    d600:	03fe03b3          	mul	t2,t3,t6
    d604:	03f787b3          	mul	a5,a5,t6
    d608:	0103df93          	srli	t6,t2,0x10
    d60c:	00a787b3          	add	a5,a5,a0
    d610:	00ff8fb3          	add	t6,t6,a5
    d614:	00aff463          	bgeu	t6,a0,d61c <__muldf3+0x1f8>
    d618:	00980833          	add	a6,a6,s1
    d61c:	00010537          	lui	a0,0x10
    d620:	fff50513          	addi	a0,a0,-1 # ffff <_end_text+0x18bf>
    d624:	00aff7b3          	and	a5,t6,a0
    d628:	00a3f3b3          	and	t2,t2,a0
    d62c:	01079793          	slli	a5,a5,0x10
    d630:	005888b3          	add	a7,a7,t0
    d634:	007787b3          	add	a5,a5,t2
    d638:	01e8bf33          	sltu	t5,a7,t5
    d63c:	006787b3          	add	a5,a5,t1
    d640:	01e782b3          	add	t0,a5,t5
    d644:	00e888b3          	add	a7,a7,a4
    d648:	00e8b733          	sltu	a4,a7,a4
    d64c:	01d28533          	add	a0,t0,t4
    d650:	00e50e33          	add	t3,a0,a4
    d654:	0067b433          	sltu	s0,a5,t1
    d658:	01e2b2b3          	sltu	t0,t0,t5
    d65c:	010fd793          	srli	a5,t6,0x10
    d660:	00ee3733          	sltu	a4,t3,a4
    d664:	00546433          	or	s0,s0,t0
    d668:	01d53533          	sltu	a0,a0,t4
    d66c:	00f40433          	add	s0,s0,a5
    d670:	00e56533          	or	a0,a0,a4
    d674:	00a40433          	add	s0,s0,a0
